
Task_Motor_LCD.elf:     file format elf32-avr

Sections:
Idx Name          Size      VMA       LMA       File off  Algn
  0 .text         00000e7a  00000000  00000000  00000094  2**1
                  CONTENTS, ALLOC, LOAD, READONLY, CODE
  1 .data         000000e2  00800060  00000e7a  00000f0e  2**0
                  CONTENTS, ALLOC, LOAD, DATA
  2 .bss          00000016  00800142  00800142  00000ff0  2**0
                  ALLOC

Disassembly of section .text:

00000000 <__vectors>:
   0:	0c 94 2a 00 	jmp	0x54	; 0x54 <__ctors_end>
   4:	0c 94 47 00 	jmp	0x8e	; 0x8e <__bad_interrupt>
   8:	0c 94 47 00 	jmp	0x8e	; 0x8e <__bad_interrupt>
   c:	0c 94 47 00 	jmp	0x8e	; 0x8e <__bad_interrupt>
  10:	0c 94 47 00 	jmp	0x8e	; 0x8e <__bad_interrupt>
  14:	0c 94 47 00 	jmp	0x8e	; 0x8e <__bad_interrupt>
  18:	0c 94 47 00 	jmp	0x8e	; 0x8e <__bad_interrupt>
  1c:	0c 94 8a 01 	jmp	0x314	; 0x314 <__vector_7>
  20:	0c 94 47 00 	jmp	0x8e	; 0x8e <__bad_interrupt>
  24:	0c 94 b3 01 	jmp	0x366	; 0x366 <__vector_9>
  28:	0c 94 47 00 	jmp	0x8e	; 0x8e <__bad_interrupt>
  2c:	0c 94 47 00 	jmp	0x8e	; 0x8e <__bad_interrupt>
  30:	0c 94 47 00 	jmp	0x8e	; 0x8e <__bad_interrupt>
  34:	0c 94 7e 06 	jmp	0xcfc	; 0xcfc <__vector_13>
  38:	0c 94 47 00 	jmp	0x8e	; 0x8e <__bad_interrupt>
  3c:	0c 94 47 00 	jmp	0x8e	; 0x8e <__bad_interrupt>
  40:	0c 94 47 00 	jmp	0x8e	; 0x8e <__bad_interrupt>
  44:	0c 94 47 00 	jmp	0x8e	; 0x8e <__bad_interrupt>
  48:	0c 94 47 00 	jmp	0x8e	; 0x8e <__bad_interrupt>
  4c:	0c 94 47 00 	jmp	0x8e	; 0x8e <__bad_interrupt>
  50:	0c 94 47 00 	jmp	0x8e	; 0x8e <__bad_interrupt>

00000054 <__ctors_end>:
  54:	11 24       	eor	r1, r1
  56:	1f be       	out	0x3f, r1	; 63
  58:	cf e5       	ldi	r28, 0x5F	; 95
  5a:	d8 e0       	ldi	r29, 0x08	; 8
  5c:	de bf       	out	0x3e, r29	; 62
  5e:	cd bf       	out	0x3d, r28	; 61

00000060 <__do_copy_data>:
  60:	11 e0       	ldi	r17, 0x01	; 1
  62:	a0 e6       	ldi	r26, 0x60	; 96
  64:	b0 e0       	ldi	r27, 0x00	; 0
  66:	ea e7       	ldi	r30, 0x7A	; 122
  68:	fe e0       	ldi	r31, 0x0E	; 14
  6a:	02 c0       	rjmp	.+4      	; 0x70 <.do_copy_data_start>

0000006c <.do_copy_data_loop>:
  6c:	05 90       	lpm	r0, Z+
  6e:	0d 92       	st	X+, r0

00000070 <.do_copy_data_start>:
  70:	a2 34       	cpi	r26, 0x42	; 66
  72:	b1 07       	cpc	r27, r17
  74:	d9 f7       	brne	.-10     	; 0x6c <.do_copy_data_loop>

00000076 <__do_clear_bss>:
  76:	11 e0       	ldi	r17, 0x01	; 1
  78:	a2 e4       	ldi	r26, 0x42	; 66
  7a:	b1 e0       	ldi	r27, 0x01	; 1
  7c:	01 c0       	rjmp	.+2      	; 0x80 <.do_clear_bss_start>

0000007e <.do_clear_bss_loop>:
  7e:	1d 92       	st	X+, r1

00000080 <.do_clear_bss_start>:
  80:	a8 35       	cpi	r26, 0x58	; 88
  82:	b1 07       	cpc	r27, r17
  84:	e1 f7       	brne	.-8      	; 0x7e <.do_clear_bss_loop>
  86:	0e 94 58 04 	call	0x8b0	; 0x8b0 <main>
  8a:	0c 94 3b 07 	jmp	0xe76	; 0xe76 <_exit>

0000008e <__bad_interrupt>:
  8e:	0c 94 00 00 	jmp	0	; 0x0 <__vectors>

00000092 <GPIO_setupPinDirection>:
  92:	68 30       	cpi	r22, 0x08	; 8
  94:	08 f0       	brcs	.+2      	; 0x98 <GPIO_setupPinDirection+0x6>
  96:	70 c0       	rjmp	.+224    	; 0x178 <GPIO_setupPinDirection+0xe6>
  98:	84 30       	cpi	r24, 0x04	; 4
  9a:	08 f0       	brcs	.+2      	; 0x9e <GPIO_setupPinDirection+0xc>
  9c:	6d c0       	rjmp	.+218    	; 0x178 <GPIO_setupPinDirection+0xe6>
  9e:	81 30       	cpi	r24, 0x01	; 1
  a0:	09 f1       	breq	.+66     	; 0xe4 <GPIO_setupPinDirection+0x52>
  a2:	81 30       	cpi	r24, 0x01	; 1
  a4:	30 f0       	brcs	.+12     	; 0xb2 <GPIO_setupPinDirection+0x20>
  a6:	82 30       	cpi	r24, 0x02	; 2
  a8:	b1 f1       	breq	.+108    	; 0x116 <GPIO_setupPinDirection+0x84>
  aa:	83 30       	cpi	r24, 0x03	; 3
  ac:	09 f0       	breq	.+2      	; 0xb0 <GPIO_setupPinDirection+0x1e>
  ae:	64 c0       	rjmp	.+200    	; 0x178 <GPIO_setupPinDirection+0xe6>
  b0:	4b c0       	rjmp	.+150    	; 0x148 <GPIO_setupPinDirection+0xb6>
  b2:	41 30       	cpi	r20, 0x01	; 1
  b4:	59 f4       	brne	.+22     	; 0xcc <GPIO_setupPinDirection+0x3a>
  b6:	2a b3       	in	r18, 0x1a	; 26
  b8:	81 e0       	ldi	r24, 0x01	; 1
  ba:	90 e0       	ldi	r25, 0x00	; 0
  bc:	02 c0       	rjmp	.+4      	; 0xc2 <GPIO_setupPinDirection+0x30>
  be:	88 0f       	add	r24, r24
  c0:	99 1f       	adc	r25, r25
  c2:	6a 95       	dec	r22
  c4:	e2 f7       	brpl	.-8      	; 0xbe <GPIO_setupPinDirection+0x2c>
  c6:	28 2b       	or	r18, r24
  c8:	2a bb       	out	0x1a, r18	; 26
  ca:	08 95       	ret
  cc:	2a b3       	in	r18, 0x1a	; 26
  ce:	81 e0       	ldi	r24, 0x01	; 1
  d0:	90 e0       	ldi	r25, 0x00	; 0
  d2:	02 c0       	rjmp	.+4      	; 0xd8 <GPIO_setupPinDirection+0x46>
  d4:	88 0f       	add	r24, r24
  d6:	99 1f       	adc	r25, r25
  d8:	6a 95       	dec	r22
  da:	e2 f7       	brpl	.-8      	; 0xd4 <GPIO_setupPinDirection+0x42>
  dc:	80 95       	com	r24
  de:	82 23       	and	r24, r18
  e0:	8a bb       	out	0x1a, r24	; 26
  e2:	08 95       	ret
  e4:	41 30       	cpi	r20, 0x01	; 1
  e6:	59 f4       	brne	.+22     	; 0xfe <GPIO_setupPinDirection+0x6c>
  e8:	27 b3       	in	r18, 0x17	; 23
  ea:	81 e0       	ldi	r24, 0x01	; 1
  ec:	90 e0       	ldi	r25, 0x00	; 0
  ee:	02 c0       	rjmp	.+4      	; 0xf4 <GPIO_setupPinDirection+0x62>
  f0:	88 0f       	add	r24, r24
  f2:	99 1f       	adc	r25, r25
  f4:	6a 95       	dec	r22
  f6:	e2 f7       	brpl	.-8      	; 0xf0 <GPIO_setupPinDirection+0x5e>
  f8:	28 2b       	or	r18, r24
  fa:	27 bb       	out	0x17, r18	; 23
  fc:	08 95       	ret
  fe:	27 b3       	in	r18, 0x17	; 23
 100:	81 e0       	ldi	r24, 0x01	; 1
 102:	90 e0       	ldi	r25, 0x00	; 0
 104:	02 c0       	rjmp	.+4      	; 0x10a <GPIO_setupPinDirection+0x78>
 106:	88 0f       	add	r24, r24
 108:	99 1f       	adc	r25, r25
 10a:	6a 95       	dec	r22
 10c:	e2 f7       	brpl	.-8      	; 0x106 <GPIO_setupPinDirection+0x74>
 10e:	80 95       	com	r24
 110:	82 23       	and	r24, r18
 112:	87 bb       	out	0x17, r24	; 23
 114:	08 95       	ret
 116:	41 30       	cpi	r20, 0x01	; 1
 118:	59 f4       	brne	.+22     	; 0x130 <GPIO_setupPinDirection+0x9e>
 11a:	24 b3       	in	r18, 0x14	; 20
 11c:	81 e0       	ldi	r24, 0x01	; 1
 11e:	90 e0       	ldi	r25, 0x00	; 0
 120:	02 c0       	rjmp	.+4      	; 0x126 <GPIO_setupPinDirection+0x94>
 122:	88 0f       	add	r24, r24
 124:	99 1f       	adc	r25, r25
 126:	6a 95       	dec	r22
 128:	e2 f7       	brpl	.-8      	; 0x122 <GPIO_setupPinDirection+0x90>
 12a:	28 2b       	or	r18, r24
 12c:	24 bb       	out	0x14, r18	; 20
 12e:	08 95       	ret
 130:	24 b3       	in	r18, 0x14	; 20
 132:	81 e0       	ldi	r24, 0x01	; 1
 134:	90 e0       	ldi	r25, 0x00	; 0
 136:	02 c0       	rjmp	.+4      	; 0x13c <GPIO_setupPinDirection+0xaa>
 138:	88 0f       	add	r24, r24
 13a:	99 1f       	adc	r25, r25
 13c:	6a 95       	dec	r22
 13e:	e2 f7       	brpl	.-8      	; 0x138 <GPIO_setupPinDirection+0xa6>
 140:	80 95       	com	r24
 142:	82 23       	and	r24, r18
 144:	84 bb       	out	0x14, r24	; 20
 146:	08 95       	ret
 148:	41 30       	cpi	r20, 0x01	; 1
 14a:	59 f4       	brne	.+22     	; 0x162 <GPIO_setupPinDirection+0xd0>
 14c:	21 b3       	in	r18, 0x11	; 17
 14e:	81 e0       	ldi	r24, 0x01	; 1
 150:	90 e0       	ldi	r25, 0x00	; 0
 152:	02 c0       	rjmp	.+4      	; 0x158 <GPIO_setupPinDirection+0xc6>
 154:	88 0f       	add	r24, r24
 156:	99 1f       	adc	r25, r25
 158:	6a 95       	dec	r22
 15a:	e2 f7       	brpl	.-8      	; 0x154 <GPIO_setupPinDirection+0xc2>
 15c:	28 2b       	or	r18, r24
 15e:	21 bb       	out	0x11, r18	; 17
 160:	08 95       	ret
 162:	21 b3       	in	r18, 0x11	; 17
 164:	81 e0       	ldi	r24, 0x01	; 1
 166:	90 e0       	ldi	r25, 0x00	; 0
 168:	02 c0       	rjmp	.+4      	; 0x16e <GPIO_setupPinDirection+0xdc>
 16a:	88 0f       	add	r24, r24
 16c:	99 1f       	adc	r25, r25
 16e:	6a 95       	dec	r22
 170:	e2 f7       	brpl	.-8      	; 0x16a <GPIO_setupPinDirection+0xd8>
 172:	80 95       	com	r24
 174:	82 23       	and	r24, r18
 176:	81 bb       	out	0x11, r24	; 17
 178:	08 95       	ret

0000017a <GPIO_WritePin>:
 17a:	68 30       	cpi	r22, 0x08	; 8
 17c:	08 f0       	brcs	.+2      	; 0x180 <GPIO_WritePin+0x6>
 17e:	70 c0       	rjmp	.+224    	; 0x260 <GPIO_WritePin+0xe6>
 180:	84 30       	cpi	r24, 0x04	; 4
 182:	08 f0       	brcs	.+2      	; 0x186 <GPIO_WritePin+0xc>
 184:	6d c0       	rjmp	.+218    	; 0x260 <GPIO_WritePin+0xe6>
 186:	81 30       	cpi	r24, 0x01	; 1
 188:	09 f1       	breq	.+66     	; 0x1cc <GPIO_WritePin+0x52>
 18a:	81 30       	cpi	r24, 0x01	; 1
 18c:	30 f0       	brcs	.+12     	; 0x19a <GPIO_WritePin+0x20>
 18e:	82 30       	cpi	r24, 0x02	; 2
 190:	b1 f1       	breq	.+108    	; 0x1fe <GPIO_WritePin+0x84>
 192:	83 30       	cpi	r24, 0x03	; 3
 194:	09 f0       	breq	.+2      	; 0x198 <GPIO_WritePin+0x1e>
 196:	64 c0       	rjmp	.+200    	; 0x260 <GPIO_WritePin+0xe6>
 198:	4b c0       	rjmp	.+150    	; 0x230 <GPIO_WritePin+0xb6>
 19a:	41 30       	cpi	r20, 0x01	; 1
 19c:	59 f4       	brne	.+22     	; 0x1b4 <GPIO_WritePin+0x3a>
 19e:	2b b3       	in	r18, 0x1b	; 27
 1a0:	81 e0       	ldi	r24, 0x01	; 1
 1a2:	90 e0       	ldi	r25, 0x00	; 0
 1a4:	02 c0       	rjmp	.+4      	; 0x1aa <GPIO_WritePin+0x30>
 1a6:	88 0f       	add	r24, r24
 1a8:	99 1f       	adc	r25, r25
 1aa:	6a 95       	dec	r22
 1ac:	e2 f7       	brpl	.-8      	; 0x1a6 <GPIO_WritePin+0x2c>
 1ae:	28 2b       	or	r18, r24
 1b0:	2b bb       	out	0x1b, r18	; 27
 1b2:	08 95       	ret
 1b4:	2b b3       	in	r18, 0x1b	; 27
 1b6:	81 e0       	ldi	r24, 0x01	; 1
 1b8:	90 e0       	ldi	r25, 0x00	; 0
 1ba:	02 c0       	rjmp	.+4      	; 0x1c0 <GPIO_WritePin+0x46>
 1bc:	88 0f       	add	r24, r24
 1be:	99 1f       	adc	r25, r25
 1c0:	6a 95       	dec	r22
 1c2:	e2 f7       	brpl	.-8      	; 0x1bc <GPIO_WritePin+0x42>
 1c4:	80 95       	com	r24
 1c6:	82 23       	and	r24, r18
 1c8:	8b bb       	out	0x1b, r24	; 27
 1ca:	08 95       	ret
 1cc:	41 30       	cpi	r20, 0x01	; 1
 1ce:	59 f4       	brne	.+22     	; 0x1e6 <GPIO_WritePin+0x6c>
 1d0:	28 b3       	in	r18, 0x18	; 24
 1d2:	81 e0       	ldi	r24, 0x01	; 1
 1d4:	90 e0       	ldi	r25, 0x00	; 0
 1d6:	02 c0       	rjmp	.+4      	; 0x1dc <GPIO_WritePin+0x62>
 1d8:	88 0f       	add	r24, r24
 1da:	99 1f       	adc	r25, r25
 1dc:	6a 95       	dec	r22
 1de:	e2 f7       	brpl	.-8      	; 0x1d8 <GPIO_WritePin+0x5e>
 1e0:	28 2b       	or	r18, r24
 1e2:	28 bb       	out	0x18, r18	; 24
 1e4:	08 95       	ret
 1e6:	28 b3       	in	r18, 0x18	; 24
 1e8:	81 e0       	ldi	r24, 0x01	; 1
 1ea:	90 e0       	ldi	r25, 0x00	; 0
 1ec:	02 c0       	rjmp	.+4      	; 0x1f2 <GPIO_WritePin+0x78>
 1ee:	88 0f       	add	r24, r24
 1f0:	99 1f       	adc	r25, r25
 1f2:	6a 95       	dec	r22
 1f4:	e2 f7       	brpl	.-8      	; 0x1ee <GPIO_WritePin+0x74>
 1f6:	80 95       	com	r24
 1f8:	82 23       	and	r24, r18
 1fa:	88 bb       	out	0x18, r24	; 24
 1fc:	08 95       	ret
 1fe:	41 30       	cpi	r20, 0x01	; 1
 200:	59 f4       	brne	.+22     	; 0x218 <GPIO_WritePin+0x9e>
 202:	25 b3       	in	r18, 0x15	; 21
 204:	81 e0       	ldi	r24, 0x01	; 1
 206:	90 e0       	ldi	r25, 0x00	; 0
 208:	02 c0       	rjmp	.+4      	; 0x20e <GPIO_WritePin+0x94>
 20a:	88 0f       	add	r24, r24
 20c:	99 1f       	adc	r25, r25
 20e:	6a 95       	dec	r22
 210:	e2 f7       	brpl	.-8      	; 0x20a <GPIO_WritePin+0x90>
 212:	28 2b       	or	r18, r24
 214:	25 bb       	out	0x15, r18	; 21
 216:	08 95       	ret
 218:	25 b3       	in	r18, 0x15	; 21
 21a:	81 e0       	ldi	r24, 0x01	; 1
 21c:	90 e0       	ldi	r25, 0x00	; 0
 21e:	02 c0       	rjmp	.+4      	; 0x224 <GPIO_WritePin+0xaa>
 220:	88 0f       	add	r24, r24
 222:	99 1f       	adc	r25, r25
 224:	6a 95       	dec	r22
 226:	e2 f7       	brpl	.-8      	; 0x220 <GPIO_WritePin+0xa6>
 228:	80 95       	com	r24
 22a:	82 23       	and	r24, r18
 22c:	85 bb       	out	0x15, r24	; 21
 22e:	08 95       	ret
 230:	41 30       	cpi	r20, 0x01	; 1
 232:	59 f4       	brne	.+22     	; 0x24a <GPIO_WritePin+0xd0>
 234:	22 b3       	in	r18, 0x12	; 18
 236:	81 e0       	ldi	r24, 0x01	; 1
 238:	90 e0       	ldi	r25, 0x00	; 0
 23a:	02 c0       	rjmp	.+4      	; 0x240 <GPIO_WritePin+0xc6>
 23c:	88 0f       	add	r24, r24
 23e:	99 1f       	adc	r25, r25
 240:	6a 95       	dec	r22
 242:	e2 f7       	brpl	.-8      	; 0x23c <GPIO_WritePin+0xc2>
 244:	28 2b       	or	r18, r24
 246:	22 bb       	out	0x12, r18	; 18
 248:	08 95       	ret
 24a:	22 b3       	in	r18, 0x12	; 18
 24c:	81 e0       	ldi	r24, 0x01	; 1
 24e:	90 e0       	ldi	r25, 0x00	; 0
 250:	02 c0       	rjmp	.+4      	; 0x256 <GPIO_WritePin+0xdc>
 252:	88 0f       	add	r24, r24
 254:	99 1f       	adc	r25, r25
 256:	6a 95       	dec	r22
 258:	e2 f7       	brpl	.-8      	; 0x252 <GPIO_WritePin+0xd8>
 25a:	80 95       	com	r24
 25c:	82 23       	and	r24, r18
 25e:	82 bb       	out	0x12, r24	; 18
 260:	08 95       	ret

00000262 <GPIO_ReadPin>:
 262:	68 30       	cpi	r22, 0x08	; 8
 264:	d0 f4       	brcc	.+52     	; 0x29a <GPIO_ReadPin+0x38>
 266:	84 30       	cpi	r24, 0x04	; 4
 268:	c0 f4       	brcc	.+48     	; 0x29a <GPIO_ReadPin+0x38>
 26a:	81 30       	cpi	r24, 0x01	; 1
 26c:	49 f0       	breq	.+18     	; 0x280 <GPIO_ReadPin+0x1e>
 26e:	81 30       	cpi	r24, 0x01	; 1
 270:	28 f0       	brcs	.+10     	; 0x27c <GPIO_ReadPin+0x1a>
 272:	82 30       	cpi	r24, 0x02	; 2
 274:	39 f0       	breq	.+14     	; 0x284 <GPIO_ReadPin+0x22>
 276:	83 30       	cpi	r24, 0x03	; 3
 278:	81 f4       	brne	.+32     	; 0x29a <GPIO_ReadPin+0x38>
 27a:	06 c0       	rjmp	.+12     	; 0x288 <GPIO_ReadPin+0x26>
 27c:	89 b3       	in	r24, 0x19	; 25
 27e:	05 c0       	rjmp	.+10     	; 0x28a <GPIO_ReadPin+0x28>
 280:	86 b3       	in	r24, 0x16	; 22
 282:	03 c0       	rjmp	.+6      	; 0x28a <GPIO_ReadPin+0x28>
 284:	83 b3       	in	r24, 0x13	; 19
 286:	01 c0       	rjmp	.+2      	; 0x28a <GPIO_ReadPin+0x28>
 288:	80 b3       	in	r24, 0x10	; 16
 28a:	90 e0       	ldi	r25, 0x00	; 0
 28c:	02 c0       	rjmp	.+4      	; 0x292 <GPIO_ReadPin+0x30>
 28e:	95 95       	asr	r25
 290:	87 95       	ror	r24
 292:	6a 95       	dec	r22
 294:	e2 f7       	brpl	.-8      	; 0x28e <GPIO_ReadPin+0x2c>
 296:	81 70       	andi	r24, 0x01	; 1
 298:	08 95       	ret
 29a:	80 e0       	ldi	r24, 0x00	; 0
 29c:	08 95       	ret

0000029e <GPIO_setupPortDirection>:
 29e:	84 30       	cpi	r24, 0x04	; 4
 2a0:	80 f4       	brcc	.+32     	; 0x2c2 <GPIO_setupPortDirection+0x24>
 2a2:	81 30       	cpi	r24, 0x01	; 1
 2a4:	49 f0       	breq	.+18     	; 0x2b8 <GPIO_setupPortDirection+0x1a>
 2a6:	81 30       	cpi	r24, 0x01	; 1
 2a8:	28 f0       	brcs	.+10     	; 0x2b4 <GPIO_setupPortDirection+0x16>
 2aa:	82 30       	cpi	r24, 0x02	; 2
 2ac:	39 f0       	breq	.+14     	; 0x2bc <GPIO_setupPortDirection+0x1e>
 2ae:	83 30       	cpi	r24, 0x03	; 3
 2b0:	41 f4       	brne	.+16     	; 0x2c2 <GPIO_setupPortDirection+0x24>
 2b2:	06 c0       	rjmp	.+12     	; 0x2c0 <GPIO_setupPortDirection+0x22>
 2b4:	6a bb       	out	0x1a, r22	; 26
 2b6:	08 95       	ret
 2b8:	67 bb       	out	0x17, r22	; 23
 2ba:	08 95       	ret
 2bc:	64 bb       	out	0x14, r22	; 20
 2be:	08 95       	ret
 2c0:	61 bb       	out	0x11, r22	; 17
 2c2:	08 95       	ret

000002c4 <GPIO_WritePort>:
 2c4:	84 30       	cpi	r24, 0x04	; 4
 2c6:	80 f4       	brcc	.+32     	; 0x2e8 <GPIO_WritePort+0x24>
 2c8:	81 30       	cpi	r24, 0x01	; 1
 2ca:	49 f0       	breq	.+18     	; 0x2de <GPIO_WritePort+0x1a>
 2cc:	81 30       	cpi	r24, 0x01	; 1
 2ce:	28 f0       	brcs	.+10     	; 0x2da <GPIO_WritePort+0x16>
 2d0:	82 30       	cpi	r24, 0x02	; 2
 2d2:	39 f0       	breq	.+14     	; 0x2e2 <GPIO_WritePort+0x1e>
 2d4:	83 30       	cpi	r24, 0x03	; 3
 2d6:	41 f4       	brne	.+16     	; 0x2e8 <GPIO_WritePort+0x24>
 2d8:	06 c0       	rjmp	.+12     	; 0x2e6 <GPIO_WritePort+0x22>
 2da:	6b bb       	out	0x1b, r22	; 27
 2dc:	08 95       	ret
 2de:	68 bb       	out	0x18, r22	; 24
 2e0:	08 95       	ret
 2e2:	65 bb       	out	0x15, r22	; 21
 2e4:	08 95       	ret
 2e6:	62 bb       	out	0x12, r22	; 18
 2e8:	08 95       	ret

000002ea <GPIO_ReadPort>:
 2ea:	84 30       	cpi	r24, 0x04	; 4
 2ec:	88 f4       	brcc	.+34     	; 0x310 <GPIO_ReadPort+0x26>
 2ee:	81 30       	cpi	r24, 0x01	; 1
 2f0:	49 f0       	breq	.+18     	; 0x304 <GPIO_ReadPort+0x1a>
 2f2:	81 30       	cpi	r24, 0x01	; 1
 2f4:	28 f0       	brcs	.+10     	; 0x300 <GPIO_ReadPort+0x16>
 2f6:	82 30       	cpi	r24, 0x02	; 2
 2f8:	39 f0       	breq	.+14     	; 0x308 <GPIO_ReadPort+0x1e>
 2fa:	83 30       	cpi	r24, 0x03	; 3
 2fc:	49 f4       	brne	.+18     	; 0x310 <GPIO_ReadPort+0x26>
 2fe:	06 c0       	rjmp	.+12     	; 0x30c <GPIO_ReadPort+0x22>
 300:	89 b3       	in	r24, 0x19	; 25
 302:	08 95       	ret
 304:	86 b3       	in	r24, 0x16	; 22
 306:	08 95       	ret
 308:	83 b3       	in	r24, 0x13	; 19
 30a:	08 95       	ret
 30c:	80 b3       	in	r24, 0x10	; 16
 30e:	08 95       	ret
 310:	80 e0       	ldi	r24, 0x00	; 0
 312:	08 95       	ret

00000314 <__vector_7>:
 314:	1f 92       	push	r1
 316:	0f 92       	push	r0
 318:	0f b6       	in	r0, 0x3f	; 63
 31a:	0f 92       	push	r0
 31c:	11 24       	eor	r1, r1
 31e:	2f 93       	push	r18
 320:	3f 93       	push	r19
 322:	4f 93       	push	r20
 324:	5f 93       	push	r21
 326:	6f 93       	push	r22
 328:	7f 93       	push	r23
 32a:	8f 93       	push	r24
 32c:	9f 93       	push	r25
 32e:	af 93       	push	r26
 330:	bf 93       	push	r27
 332:	ef 93       	push	r30
 334:	ff 93       	push	r31
 336:	e0 91 42 01 	lds	r30, 0x0142
 33a:	f0 91 43 01 	lds	r31, 0x0143
 33e:	30 97       	sbiw	r30, 0x00	; 0
 340:	09 f0       	breq	.+2      	; 0x344 <__vector_7+0x30>
 342:	09 95       	icall
 344:	ff 91       	pop	r31
 346:	ef 91       	pop	r30
 348:	bf 91       	pop	r27
 34a:	af 91       	pop	r26
 34c:	9f 91       	pop	r25
 34e:	8f 91       	pop	r24
 350:	7f 91       	pop	r23
 352:	6f 91       	pop	r22
 354:	5f 91       	pop	r21
 356:	4f 91       	pop	r20
 358:	3f 91       	pop	r19
 35a:	2f 91       	pop	r18
 35c:	0f 90       	pop	r0
 35e:	0f be       	out	0x3f, r0	; 63
 360:	0f 90       	pop	r0
 362:	1f 90       	pop	r1
 364:	18 95       	reti

00000366 <__vector_9>:
 366:	1f 92       	push	r1
 368:	0f 92       	push	r0
 36a:	0f b6       	in	r0, 0x3f	; 63
 36c:	0f 92       	push	r0
 36e:	11 24       	eor	r1, r1
 370:	2f 93       	push	r18
 372:	3f 93       	push	r19
 374:	4f 93       	push	r20
 376:	5f 93       	push	r21
 378:	6f 93       	push	r22
 37a:	7f 93       	push	r23
 37c:	8f 93       	push	r24
 37e:	9f 93       	push	r25
 380:	af 93       	push	r26
 382:	bf 93       	push	r27
 384:	ef 93       	push	r30
 386:	ff 93       	push	r31
 388:	e0 91 42 01 	lds	r30, 0x0142
 38c:	f0 91 43 01 	lds	r31, 0x0143
 390:	30 97       	sbiw	r30, 0x00	; 0
 392:	09 f0       	breq	.+2      	; 0x396 <__vector_9+0x30>
 394:	09 95       	icall
 396:	ff 91       	pop	r31
 398:	ef 91       	pop	r30
 39a:	bf 91       	pop	r27
 39c:	af 91       	pop	r26
 39e:	9f 91       	pop	r25
 3a0:	8f 91       	pop	r24
 3a2:	7f 91       	pop	r23
 3a4:	6f 91       	pop	r22
 3a6:	5f 91       	pop	r21
 3a8:	4f 91       	pop	r20
 3aa:	3f 91       	pop	r19
 3ac:	2f 91       	pop	r18
 3ae:	0f 90       	pop	r0
 3b0:	0f be       	out	0x3f, r0	; 63
 3b2:	0f 90       	pop	r0
 3b4:	1f 90       	pop	r1
 3b6:	18 95       	reti

000003b8 <Timer1_init>:
 3b8:	fc 01       	movw	r30, r24
 3ba:	80 81       	ld	r24, Z
 3bc:	91 81       	ldd	r25, Z+1	; 0x01
 3be:	9d bd       	out	0x2d, r25	; 45
 3c0:	8c bd       	out	0x2c, r24	; 44
 3c2:	8c e0       	ldi	r24, 0x0C	; 12
 3c4:	8f bd       	out	0x2f, r24	; 47
 3c6:	85 81       	ldd	r24, Z+5	; 0x05
 3c8:	81 30       	cpi	r24, 0x01	; 1
 3ca:	69 f4       	brne	.+26     	; 0x3e6 <Timer1_init+0x2e>
 3cc:	89 b7       	in	r24, 0x39	; 57
 3ce:	80 61       	ori	r24, 0x10	; 16
 3d0:	89 bf       	out	0x39, r24	; 57
 3d2:	8f b5       	in	r24, 0x2f	; 47
 3d4:	80 64       	ori	r24, 0x40	; 64
 3d6:	8f bd       	out	0x2f, r24	; 47
 3d8:	88 e0       	ldi	r24, 0x08	; 8
 3da:	8e bd       	out	0x2e, r24	; 46
 3dc:	82 81       	ldd	r24, Z+2	; 0x02
 3de:	93 81       	ldd	r25, Z+3	; 0x03
 3e0:	9b bd       	out	0x2b, r25	; 43
 3e2:	8a bd       	out	0x2a, r24	; 42
 3e4:	02 c0       	rjmp	.+4      	; 0x3ea <Timer1_init+0x32>
 3e6:	84 e0       	ldi	r24, 0x04	; 4
 3e8:	89 bf       	out	0x39, r24	; 57
 3ea:	8e b5       	in	r24, 0x2e	; 46
 3ec:	94 81       	ldd	r25, Z+4	; 0x04
 3ee:	89 2b       	or	r24, r25
 3f0:	8e bd       	out	0x2e, r24	; 46
 3f2:	8f b7       	in	r24, 0x3f	; 63
 3f4:	80 68       	ori	r24, 0x80	; 128
 3f6:	8f bf       	out	0x3f, r24	; 63
 3f8:	08 95       	ret

000003fa <Timer1_deInit>:
 3fa:	1f bc       	out	0x2f, r1	; 47
 3fc:	1e bc       	out	0x2e, r1	; 46
 3fe:	1d bc       	out	0x2d, r1	; 45
 400:	1c bc       	out	0x2c, r1	; 44
 402:	1b bc       	out	0x2b, r1	; 43
 404:	1a bc       	out	0x2a, r1	; 42
 406:	89 b7       	in	r24, 0x39	; 57
 408:	8f 7d       	andi	r24, 0xDF	; 223
 40a:	89 bf       	out	0x39, r24	; 57
 40c:	08 95       	ret

0000040e <Timer1_setCallBack>:
 40e:	90 93 43 01 	sts	0x0143, r25
 412:	80 93 42 01 	sts	0x0142, r24
 416:	08 95       	ret

00000418 <PWM_Timer0_Set>:
 418:	9f ef       	ldi	r25, 0xFF	; 255
 41a:	89 9f       	mul	r24, r25
 41c:	c0 01       	movw	r24, r0
 41e:	11 24       	eor	r1, r1
 420:	64 e6       	ldi	r22, 0x64	; 100
 422:	70 e0       	ldi	r23, 0x00	; 0
 424:	0e 94 c1 06 	call	0xd82	; 0xd82 <__divmodhi4>
 428:	6c bf       	out	0x3c, r22	; 60
 42a:	08 95       	ret

0000042c <Timer0_deInit>:
 42c:	12 be       	out	0x32, r1	; 50
 42e:	1c be       	out	0x3c, r1	; 60
 430:	13 be       	out	0x33, r1	; 51
 432:	08 95       	ret

00000434 <PWM_Timer0_Init>:
 434:	12 be       	out	0x32, r1	; 50
 436:	81 e0       	ldi	r24, 0x01	; 1
 438:	63 e0       	ldi	r22, 0x03	; 3
 43a:	41 e0       	ldi	r20, 0x01	; 1
 43c:	0e 94 49 00 	call	0x92	; 0x92 <GPIO_setupPinDirection>
 440:	8a e6       	ldi	r24, 0x6A	; 106
 442:	83 bf       	out	0x33, r24	; 51
 444:	08 95       	ret

00000446 <UART_init>:
 446:	fc 01       	movw	r30, r24
 448:	59 9a       	sbi	0x0b, 1	; 11
 44a:	88 e1       	ldi	r24, 0x18	; 24
 44c:	8a b9       	out	0x0a, r24	; 10
 44e:	57 9a       	sbi	0x0a, 7	; 10
 450:	80 b5       	in	r24, 0x20	; 32
 452:	80 68       	ori	r24, 0x80	; 128
 454:	80 bd       	out	0x20, r24	; 32
 456:	90 b5       	in	r25, 0x20	; 32
 458:	20 81       	ld	r18, Z
 45a:	82 2f       	mov	r24, r18
 45c:	88 0f       	add	r24, r24
 45e:	86 70       	andi	r24, 0x06	; 6
 460:	99 7f       	andi	r25, 0xF9	; 249
 462:	89 2b       	or	r24, r25
 464:	80 bd       	out	0x20, r24	; 32
 466:	8a b1       	in	r24, 0x0a	; 10
 468:	24 70       	andi	r18, 0x04	; 4
 46a:	8b 7f       	andi	r24, 0xFB	; 251
 46c:	28 2b       	or	r18, r24
 46e:	2a b9       	out	0x0a, r18	; 10
 470:	90 b5       	in	r25, 0x20	; 32
 472:	82 81       	ldd	r24, Z+2	; 0x02
 474:	82 95       	swap	r24
 476:	80 7f       	andi	r24, 0xF0	; 240
 478:	9f 7c       	andi	r25, 0xCF	; 207
 47a:	89 2b       	or	r24, r25
 47c:	80 bd       	out	0x20, r24	; 32
 47e:	90 b5       	in	r25, 0x20	; 32
 480:	81 81       	ldd	r24, Z+1	; 0x01
 482:	88 0f       	add	r24, r24
 484:	88 0f       	add	r24, r24
 486:	88 0f       	add	r24, r24
 488:	97 7f       	andi	r25, 0xF7	; 247
 48a:	89 2b       	or	r24, r25
 48c:	80 bd       	out	0x20, r24	; 32
 48e:	67 81       	ldd	r22, Z+7	; 0x07
 490:	70 e0       	ldi	r23, 0x00	; 0
 492:	80 e0       	ldi	r24, 0x00	; 0
 494:	90 e0       	ldi	r25, 0x00	; 0
 496:	23 81       	ldd	r18, Z+3	; 0x03
 498:	34 81       	ldd	r19, Z+4	; 0x04
 49a:	45 81       	ldd	r20, Z+5	; 0x05
 49c:	56 81       	ldd	r21, Z+6	; 0x06
 49e:	0e 94 a2 06 	call	0xd44	; 0xd44 <__mulsi3>
 4a2:	9b 01       	movw	r18, r22
 4a4:	ac 01       	movw	r20, r24
 4a6:	60 e0       	ldi	r22, 0x00	; 0
 4a8:	72 e1       	ldi	r23, 0x12	; 18
 4aa:	8a e7       	ldi	r24, 0x7A	; 122
 4ac:	90 e0       	ldi	r25, 0x00	; 0
 4ae:	0e 94 d4 06 	call	0xda8	; 0xda8 <__udivmodsi4>
 4b2:	21 50       	subi	r18, 0x01	; 1
 4b4:	30 40       	sbci	r19, 0x00	; 0
 4b6:	80 b5       	in	r24, 0x20	; 32
 4b8:	8f 77       	andi	r24, 0x7F	; 127
 4ba:	80 bd       	out	0x20, r24	; 32
 4bc:	30 bd       	out	0x20, r19	; 32
 4be:	29 b9       	out	0x09, r18	; 9
 4c0:	08 95       	ret

000004c2 <UART_sendByte>:
 4c2:	5d 9b       	sbis	0x0b, 5	; 11
 4c4:	fe cf       	rjmp	.-4      	; 0x4c2 <UART_sendByte>
 4c6:	8c b9       	out	0x0c, r24	; 12
 4c8:	08 95       	ret

000004ca <UART_recieveByte>:
 4ca:	5f 9b       	sbis	0x0b, 7	; 11
 4cc:	fe cf       	rjmp	.-4      	; 0x4ca <UART_recieveByte>
 4ce:	8c b1       	in	r24, 0x0c	; 12
 4d0:	08 95       	ret

000004d2 <UART_sendString>:
 4d2:	20 e0       	ldi	r18, 0x00	; 0
 4d4:	04 c0       	rjmp	.+8      	; 0x4de <UART_sendString+0xc>
 4d6:	5d 9b       	sbis	0x0b, 5	; 11
 4d8:	fe cf       	rjmp	.-4      	; 0x4d6 <UART_sendString+0x4>
 4da:	ec b9       	out	0x0c, r30	; 12
 4dc:	2f 5f       	subi	r18, 0xFF	; 255
 4de:	fc 01       	movw	r30, r24
 4e0:	e2 0f       	add	r30, r18
 4e2:	f1 1d       	adc	r31, r1
 4e4:	e0 81       	ld	r30, Z
 4e6:	ee 23       	and	r30, r30
 4e8:	b1 f7       	brne	.-20     	; 0x4d6 <UART_sendString+0x4>
 4ea:	08 95       	ret

000004ec <UART_receiveString>:
 4ec:	dc 01       	movw	r26, r24
 4ee:	5f 9b       	sbis	0x0b, 7	; 11
 4f0:	fe cf       	rjmp	.-4      	; 0x4ee <UART_receiveString+0x2>
 4f2:	8c b1       	in	r24, 0x0c	; 12
 4f4:	8c 93       	st	X, r24
 4f6:	90 e0       	ldi	r25, 0x00	; 0
 4f8:	08 c0       	rjmp	.+16     	; 0x50a <UART_receiveString+0x1e>
 4fa:	9f 5f       	subi	r25, 0xFF	; 255
 4fc:	5f 9b       	sbis	0x0b, 7	; 11
 4fe:	fe cf       	rjmp	.-4      	; 0x4fc <UART_receiveString+0x10>
 500:	8c b1       	in	r24, 0x0c	; 12
 502:	fd 01       	movw	r30, r26
 504:	e9 0f       	add	r30, r25
 506:	f1 1d       	adc	r31, r1
 508:	80 83       	st	Z, r24
 50a:	fd 01       	movw	r30, r26
 50c:	e9 0f       	add	r30, r25
 50e:	f1 1d       	adc	r31, r1
 510:	80 81       	ld	r24, Z
 512:	83 32       	cpi	r24, 0x23	; 35
 514:	91 f7       	brne	.-28     	; 0x4fa <UART_receiveString+0xe>
 516:	10 82       	st	Z, r1
 518:	08 95       	ret

0000051a <DCmotor_rotate>:
 51a:	1f 93       	push	r17
 51c:	18 2f       	mov	r17, r24
 51e:	86 2f       	mov	r24, r22
 520:	0e 94 0c 02 	call	0x418	; 0x418 <PWM_Timer0_Set>
 524:	11 30       	cpi	r17, 0x01	; 1
 526:	49 f0       	breq	.+18     	; 0x53a <DCmotor_rotate+0x20>
 528:	11 30       	cpi	r17, 0x01	; 1
 52a:	18 f0       	brcs	.+6      	; 0x532 <DCmotor_rotate+0x18>
 52c:	12 30       	cpi	r17, 0x02	; 2
 52e:	c1 f4       	brne	.+48     	; 0x560 <DCmotor_rotate+0x46>
 530:	0d c0       	rjmp	.+26     	; 0x54c <DCmotor_rotate+0x32>
 532:	82 e0       	ldi	r24, 0x02	; 2
 534:	60 e0       	ldi	r22, 0x00	; 0
 536:	40 e0       	ldi	r20, 0x00	; 0
 538:	0c c0       	rjmp	.+24     	; 0x552 <DCmotor_rotate+0x38>
 53a:	82 e0       	ldi	r24, 0x02	; 2
 53c:	60 e0       	ldi	r22, 0x00	; 0
 53e:	40 e0       	ldi	r20, 0x00	; 0
 540:	0e 94 bd 00 	call	0x17a	; 0x17a <GPIO_WritePin>
 544:	82 e0       	ldi	r24, 0x02	; 2
 546:	61 e0       	ldi	r22, 0x01	; 1
 548:	41 e0       	ldi	r20, 0x01	; 1
 54a:	08 c0       	rjmp	.+16     	; 0x55c <DCmotor_rotate+0x42>
 54c:	82 e0       	ldi	r24, 0x02	; 2
 54e:	60 e0       	ldi	r22, 0x00	; 0
 550:	41 e0       	ldi	r20, 0x01	; 1
 552:	0e 94 bd 00 	call	0x17a	; 0x17a <GPIO_WritePin>
 556:	82 e0       	ldi	r24, 0x02	; 2
 558:	61 e0       	ldi	r22, 0x01	; 1
 55a:	40 e0       	ldi	r20, 0x00	; 0
 55c:	0e 94 bd 00 	call	0x17a	; 0x17a <GPIO_WritePin>
 560:	1f 91       	pop	r17
 562:	08 95       	ret

00000564 <DCmotor_init>:
 564:	0e 94 1a 02 	call	0x434	; 0x434 <PWM_Timer0_Init>
 568:	82 e0       	ldi	r24, 0x02	; 2
 56a:	60 e0       	ldi	r22, 0x00	; 0
 56c:	41 e0       	ldi	r20, 0x01	; 1
 56e:	0e 94 49 00 	call	0x92	; 0x92 <GPIO_setupPinDirection>
 572:	82 e0       	ldi	r24, 0x02	; 2
 574:	61 e0       	ldi	r22, 0x01	; 1
 576:	41 e0       	ldi	r20, 0x01	; 1
 578:	0e 94 49 00 	call	0x92	; 0x92 <GPIO_setupPinDirection>
 57c:	82 e0       	ldi	r24, 0x02	; 2
 57e:	60 e0       	ldi	r22, 0x00	; 0
 580:	40 e0       	ldi	r20, 0x00	; 0
 582:	0e 94 bd 00 	call	0x17a	; 0x17a <GPIO_WritePin>
 586:	82 e0       	ldi	r24, 0x02	; 2
 588:	61 e0       	ldi	r22, 0x01	; 1
 58a:	40 e0       	ldi	r20, 0x00	; 0
 58c:	0e 94 bd 00 	call	0x17a	; 0x17a <GPIO_WritePin>
 590:	08 95       	ret

00000592 <Stepper_Start>:
 592:	0f 93       	push	r16
 594:	1f 93       	push	r17
 596:	fc 01       	movw	r30, r24
 598:	80 81       	ld	r24, Z
 59a:	91 81       	ldd	r25, Z+1	; 0x01
 59c:	00 97       	sbiw	r24, 0x00	; 0
 59e:	09 f4       	brne	.+2      	; 0x5a2 <Stepper_Start+0x10>
 5a0:	96 c0       	rjmp	.+300    	; 0x6ce <Stepper_Start+0x13c>
 5a2:	6c 34       	cpi	r22, 0x4C	; 76
 5a4:	21 f0       	breq	.+8      	; 0x5ae <Stepper_Start+0x1c>
 5a6:	62 35       	cpi	r22, 0x52	; 82
 5a8:	09 f0       	breq	.+2      	; 0x5ac <Stepper_Start+0x1a>
 5aa:	91 c0       	rjmp	.+290    	; 0x6ce <Stepper_Start+0x13c>
 5ac:	34 c0       	rjmp	.+104    	; 0x616 <Stepper_Start+0x84>
 5ae:	01 97       	sbiw	r24, 0x01	; 1
 5b0:	91 83       	std	Z+1, r25	; 0x01
 5b2:	80 83       	st	Z, r24
 5b4:	e0 91 44 01 	lds	r30, 0x0144
 5b8:	f0 91 45 01 	lds	r31, 0x0145
 5bc:	e6 5d       	subi	r30, 0xD6	; 214
 5be:	fe 4f       	sbci	r31, 0xFE	; 254
 5c0:	40 81       	ld	r20, Z
 5c2:	46 95       	lsr	r20
 5c4:	46 95       	lsr	r20
 5c6:	46 95       	lsr	r20
 5c8:	41 70       	andi	r20, 0x01	; 1
 5ca:	82 e0       	ldi	r24, 0x02	; 2
 5cc:	62 e0       	ldi	r22, 0x02	; 2
 5ce:	0e 94 bd 00 	call	0x17a	; 0x17a <GPIO_WritePin>
 5d2:	e0 91 44 01 	lds	r30, 0x0144
 5d6:	f0 91 45 01 	lds	r31, 0x0145
 5da:	e6 5d       	subi	r30, 0xD6	; 214
 5dc:	fe 4f       	sbci	r31, 0xFE	; 254
 5de:	40 81       	ld	r20, Z
 5e0:	46 95       	lsr	r20
 5e2:	46 95       	lsr	r20
 5e4:	41 70       	andi	r20, 0x01	; 1
 5e6:	82 e0       	ldi	r24, 0x02	; 2
 5e8:	63 e0       	ldi	r22, 0x03	; 3
 5ea:	0e 94 bd 00 	call	0x17a	; 0x17a <GPIO_WritePin>
 5ee:	e0 91 44 01 	lds	r30, 0x0144
 5f2:	f0 91 45 01 	lds	r31, 0x0145
 5f6:	e6 5d       	subi	r30, 0xD6	; 214
 5f8:	fe 4f       	sbci	r31, 0xFE	; 254
 5fa:	40 81       	ld	r20, Z
 5fc:	46 95       	lsr	r20
 5fe:	41 70       	andi	r20, 0x01	; 1
 600:	82 e0       	ldi	r24, 0x02	; 2
 602:	64 e0       	ldi	r22, 0x04	; 4
 604:	0e 94 bd 00 	call	0x17a	; 0x17a <GPIO_WritePin>
 608:	e0 91 44 01 	lds	r30, 0x0144
 60c:	f0 91 45 01 	lds	r31, 0x0145
 610:	e6 5d       	subi	r30, 0xD6	; 214
 612:	fe 4f       	sbci	r31, 0xFE	; 254
 614:	41 c0       	rjmp	.+130    	; 0x698 <Stepper_Start+0x106>
 616:	01 97       	sbiw	r24, 0x01	; 1
 618:	91 83       	std	Z+1, r25	; 0x01
 61a:	80 83       	st	Z, r24
 61c:	07 e0       	ldi	r16, 0x07	; 7
 61e:	10 e0       	ldi	r17, 0x00	; 0
 620:	80 91 44 01 	lds	r24, 0x0144
 624:	90 91 45 01 	lds	r25, 0x0145
 628:	f8 01       	movw	r30, r16
 62a:	e8 1b       	sub	r30, r24
 62c:	f9 0b       	sbc	r31, r25
 62e:	e6 5d       	subi	r30, 0xD6	; 214
 630:	fe 4f       	sbci	r31, 0xFE	; 254
 632:	40 81       	ld	r20, Z
 634:	46 95       	lsr	r20
 636:	46 95       	lsr	r20
 638:	46 95       	lsr	r20
 63a:	41 70       	andi	r20, 0x01	; 1
 63c:	82 e0       	ldi	r24, 0x02	; 2
 63e:	62 e0       	ldi	r22, 0x02	; 2
 640:	0e 94 bd 00 	call	0x17a	; 0x17a <GPIO_WritePin>
 644:	80 91 44 01 	lds	r24, 0x0144
 648:	90 91 45 01 	lds	r25, 0x0145
 64c:	f8 01       	movw	r30, r16
 64e:	e8 1b       	sub	r30, r24
 650:	f9 0b       	sbc	r31, r25
 652:	e6 5d       	subi	r30, 0xD6	; 214
 654:	fe 4f       	sbci	r31, 0xFE	; 254
 656:	40 81       	ld	r20, Z
 658:	46 95       	lsr	r20
 65a:	46 95       	lsr	r20
 65c:	41 70       	andi	r20, 0x01	; 1
 65e:	82 e0       	ldi	r24, 0x02	; 2
 660:	63 e0       	ldi	r22, 0x03	; 3
 662:	0e 94 bd 00 	call	0x17a	; 0x17a <GPIO_WritePin>
 666:	80 91 44 01 	lds	r24, 0x0144
 66a:	90 91 45 01 	lds	r25, 0x0145
 66e:	f8 01       	movw	r30, r16
 670:	e8 1b       	sub	r30, r24
 672:	f9 0b       	sbc	r31, r25
 674:	e6 5d       	subi	r30, 0xD6	; 214
 676:	fe 4f       	sbci	r31, 0xFE	; 254
 678:	40 81       	ld	r20, Z
 67a:	46 95       	lsr	r20
 67c:	41 70       	andi	r20, 0x01	; 1
 67e:	82 e0       	ldi	r24, 0x02	; 2
 680:	64 e0       	ldi	r22, 0x04	; 4
 682:	0e 94 bd 00 	call	0x17a	; 0x17a <GPIO_WritePin>
 686:	80 91 44 01 	lds	r24, 0x0144
 68a:	90 91 45 01 	lds	r25, 0x0145
 68e:	08 1b       	sub	r16, r24
 690:	19 0b       	sbc	r17, r25
 692:	06 5d       	subi	r16, 0xD6	; 214
 694:	1e 4f       	sbci	r17, 0xFE	; 254
 696:	f8 01       	movw	r30, r16
 698:	40 81       	ld	r20, Z
 69a:	41 70       	andi	r20, 0x01	; 1
 69c:	82 e0       	ldi	r24, 0x02	; 2
 69e:	65 e0       	ldi	r22, 0x05	; 5
 6a0:	0e 94 bd 00 	call	0x17a	; 0x17a <GPIO_WritePin>
 6a4:	80 e4       	ldi	r24, 0x40	; 64
 6a6:	9c e9       	ldi	r25, 0x9C	; 156
 6a8:	01 97       	sbiw	r24, 0x01	; 1
 6aa:	f1 f7       	brne	.-4      	; 0x6a8 <Stepper_Start+0x116>
 6ac:	80 91 44 01 	lds	r24, 0x0144
 6b0:	90 91 45 01 	lds	r25, 0x0145
 6b4:	88 30       	cpi	r24, 0x08	; 8
 6b6:	91 05       	cpc	r25, r1
 6b8:	34 f4       	brge	.+12     	; 0x6c6 <Stepper_Start+0x134>
 6ba:	01 96       	adiw	r24, 0x01	; 1
 6bc:	90 93 45 01 	sts	0x0145, r25
 6c0:	80 93 44 01 	sts	0x0144, r24
 6c4:	04 c0       	rjmp	.+8      	; 0x6ce <Stepper_Start+0x13c>
 6c6:	10 92 45 01 	sts	0x0145, r1
 6ca:	10 92 44 01 	sts	0x0144, r1
 6ce:	1f 91       	pop	r17
 6d0:	0f 91       	pop	r16
 6d2:	08 95       	ret

000006d4 <Stepper_Init>:
 6d4:	82 e0       	ldi	r24, 0x02	; 2
 6d6:	62 e0       	ldi	r22, 0x02	; 2
 6d8:	41 e0       	ldi	r20, 0x01	; 1
 6da:	0e 94 49 00 	call	0x92	; 0x92 <GPIO_setupPinDirection>
 6de:	82 e0       	ldi	r24, 0x02	; 2
 6e0:	63 e0       	ldi	r22, 0x03	; 3
 6e2:	41 e0       	ldi	r20, 0x01	; 1
 6e4:	0e 94 49 00 	call	0x92	; 0x92 <GPIO_setupPinDirection>
 6e8:	82 e0       	ldi	r24, 0x02	; 2
 6ea:	64 e0       	ldi	r22, 0x04	; 4
 6ec:	41 e0       	ldi	r20, 0x01	; 1
 6ee:	0e 94 49 00 	call	0x92	; 0x92 <GPIO_setupPinDirection>
 6f2:	82 e0       	ldi	r24, 0x02	; 2
 6f4:	65 e0       	ldi	r22, 0x05	; 5
 6f6:	41 e0       	ldi	r20, 0x01	; 1
 6f8:	0e 94 49 00 	call	0x92	; 0x92 <GPIO_setupPinDirection>
 6fc:	82 e0       	ldi	r24, 0x02	; 2
 6fe:	62 e0       	ldi	r22, 0x02	; 2
 700:	40 e0       	ldi	r20, 0x00	; 0
 702:	0e 94 bd 00 	call	0x17a	; 0x17a <GPIO_WritePin>
 706:	82 e0       	ldi	r24, 0x02	; 2
 708:	63 e0       	ldi	r22, 0x03	; 3
 70a:	41 e0       	ldi	r20, 0x01	; 1
 70c:	0e 94 bd 00 	call	0x17a	; 0x17a <GPIO_WritePin>
 710:	82 e0       	ldi	r24, 0x02	; 2
 712:	64 e0       	ldi	r22, 0x04	; 4
 714:	41 e0       	ldi	r20, 0x01	; 1
 716:	0e 94 bd 00 	call	0x17a	; 0x17a <GPIO_WritePin>
 71a:	82 e0       	ldi	r24, 0x02	; 2
 71c:	65 e0       	ldi	r22, 0x05	; 5
 71e:	40 e0       	ldi	r20, 0x00	; 0
 720:	0e 94 bd 00 	call	0x17a	; 0x17a <GPIO_WritePin>
 724:	08 95       	ret

00000726 <LCD_displayCharacter>:
 726:	ff 92       	push	r15
 728:	0f 93       	push	r16
 72a:	1f 93       	push	r17
 72c:	f8 2e       	mov	r15, r24
 72e:	81 e0       	ldi	r24, 0x01	; 1
 730:	62 e0       	ldi	r22, 0x02	; 2
 732:	41 e0       	ldi	r20, 0x01	; 1
 734:	0e 94 bd 00 	call	0x17a	; 0x17a <GPIO_WritePin>
 738:	00 ed       	ldi	r16, 0xD0	; 208
 73a:	17 e0       	ldi	r17, 0x07	; 7
 73c:	c8 01       	movw	r24, r16
 73e:	01 97       	sbiw	r24, 0x01	; 1
 740:	f1 f7       	brne	.-4      	; 0x73e <LCD_displayCharacter+0x18>
 742:	81 e0       	ldi	r24, 0x01	; 1
 744:	60 e0       	ldi	r22, 0x00	; 0
 746:	41 e0       	ldi	r20, 0x01	; 1
 748:	0e 94 bd 00 	call	0x17a	; 0x17a <GPIO_WritePin>
 74c:	c8 01       	movw	r24, r16
 74e:	01 97       	sbiw	r24, 0x01	; 1
 750:	f1 f7       	brne	.-4      	; 0x74e <LCD_displayCharacter+0x28>
 752:	80 e0       	ldi	r24, 0x00	; 0
 754:	6f 2d       	mov	r22, r15
 756:	0e 94 62 01 	call	0x2c4	; 0x2c4 <GPIO_WritePort>
 75a:	c8 01       	movw	r24, r16
 75c:	01 97       	sbiw	r24, 0x01	; 1
 75e:	f1 f7       	brne	.-4      	; 0x75c <LCD_displayCharacter+0x36>
 760:	81 e0       	ldi	r24, 0x01	; 1
 762:	60 e0       	ldi	r22, 0x00	; 0
 764:	40 e0       	ldi	r20, 0x00	; 0
 766:	0e 94 bd 00 	call	0x17a	; 0x17a <GPIO_WritePin>
 76a:	c8 01       	movw	r24, r16
 76c:	01 97       	sbiw	r24, 0x01	; 1
 76e:	f1 f7       	brne	.-4      	; 0x76c <LCD_displayCharacter+0x46>
 770:	1f 91       	pop	r17
 772:	0f 91       	pop	r16
 774:	ff 90       	pop	r15
 776:	08 95       	ret

00000778 <LCD_displayString>:
 778:	1f 93       	push	r17
 77a:	cf 93       	push	r28
 77c:	df 93       	push	r29
 77e:	ec 01       	movw	r28, r24
 780:	10 e0       	ldi	r17, 0x00	; 0
 782:	03 c0       	rjmp	.+6      	; 0x78a <LCD_displayString+0x12>
 784:	0e 94 93 03 	call	0x726	; 0x726 <LCD_displayCharacter>
 788:	1f 5f       	subi	r17, 0xFF	; 255
 78a:	fe 01       	movw	r30, r28
 78c:	e1 0f       	add	r30, r17
 78e:	f1 1d       	adc	r31, r1
 790:	80 81       	ld	r24, Z
 792:	88 23       	and	r24, r24
 794:	b9 f7       	brne	.-18     	; 0x784 <LCD_displayString+0xc>
 796:	df 91       	pop	r29
 798:	cf 91       	pop	r28
 79a:	1f 91       	pop	r17
 79c:	08 95       	ret

0000079e <LCD_intgerToString>:
 79e:	0f 93       	push	r16
 7a0:	1f 93       	push	r17
 7a2:	df 93       	push	r29
 7a4:	cf 93       	push	r28
 7a6:	cd b7       	in	r28, 0x3d	; 61
 7a8:	de b7       	in	r29, 0x3e	; 62
 7aa:	60 97       	sbiw	r28, 0x10	; 16
 7ac:	0f b6       	in	r0, 0x3f	; 63
 7ae:	f8 94       	cli
 7b0:	de bf       	out	0x3e, r29	; 62
 7b2:	0f be       	out	0x3f, r0	; 63
 7b4:	cd bf       	out	0x3d, r28	; 61
 7b6:	8e 01       	movw	r16, r28
 7b8:	0f 5f       	subi	r16, 0xFF	; 255
 7ba:	1f 4f       	sbci	r17, 0xFF	; 255
 7bc:	b8 01       	movw	r22, r16
 7be:	4a e0       	ldi	r20, 0x0A	; 10
 7c0:	50 e0       	ldi	r21, 0x00	; 0
 7c2:	0e 94 0a 07 	call	0xe14	; 0xe14 <itoa>
 7c6:	c8 01       	movw	r24, r16
 7c8:	0e 94 bc 03 	call	0x778	; 0x778 <LCD_displayString>
 7cc:	60 96       	adiw	r28, 0x10	; 16
 7ce:	0f b6       	in	r0, 0x3f	; 63
 7d0:	f8 94       	cli
 7d2:	de bf       	out	0x3e, r29	; 62
 7d4:	0f be       	out	0x3f, r0	; 63
 7d6:	cd bf       	out	0x3d, r28	; 61
 7d8:	cf 91       	pop	r28
 7da:	df 91       	pop	r29
 7dc:	1f 91       	pop	r17
 7de:	0f 91       	pop	r16
 7e0:	08 95       	ret

000007e2 <LCD_sendCommand>:
 7e2:	ff 92       	push	r15
 7e4:	0f 93       	push	r16
 7e6:	1f 93       	push	r17
 7e8:	f8 2e       	mov	r15, r24
 7ea:	81 e0       	ldi	r24, 0x01	; 1
 7ec:	62 e0       	ldi	r22, 0x02	; 2
 7ee:	40 e0       	ldi	r20, 0x00	; 0
 7f0:	0e 94 bd 00 	call	0x17a	; 0x17a <GPIO_WritePin>
 7f4:	00 ed       	ldi	r16, 0xD0	; 208
 7f6:	17 e0       	ldi	r17, 0x07	; 7
 7f8:	c8 01       	movw	r24, r16
 7fa:	01 97       	sbiw	r24, 0x01	; 1
 7fc:	f1 f7       	brne	.-4      	; 0x7fa <LCD_sendCommand+0x18>
 7fe:	81 e0       	ldi	r24, 0x01	; 1
 800:	60 e0       	ldi	r22, 0x00	; 0
 802:	41 e0       	ldi	r20, 0x01	; 1
 804:	0e 94 bd 00 	call	0x17a	; 0x17a <GPIO_WritePin>
 808:	c8 01       	movw	r24, r16
 80a:	01 97       	sbiw	r24, 0x01	; 1
 80c:	f1 f7       	brne	.-4      	; 0x80a <LCD_sendCommand+0x28>
 80e:	80 e0       	ldi	r24, 0x00	; 0
 810:	6f 2d       	mov	r22, r15
 812:	0e 94 62 01 	call	0x2c4	; 0x2c4 <GPIO_WritePort>
 816:	c8 01       	movw	r24, r16
 818:	01 97       	sbiw	r24, 0x01	; 1
 81a:	f1 f7       	brne	.-4      	; 0x818 <LCD_sendCommand+0x36>
 81c:	81 e0       	ldi	r24, 0x01	; 1
 81e:	60 e0       	ldi	r22, 0x00	; 0
 820:	40 e0       	ldi	r20, 0x00	; 0
 822:	0e 94 bd 00 	call	0x17a	; 0x17a <GPIO_WritePin>
 826:	c8 01       	movw	r24, r16
 828:	01 97       	sbiw	r24, 0x01	; 1
 82a:	f1 f7       	brne	.-4      	; 0x828 <LCD_sendCommand+0x46>
 82c:	1f 91       	pop	r17
 82e:	0f 91       	pop	r16
 830:	ff 90       	pop	r15
 832:	08 95       	ret

00000834 <LCD_clearScreen>:
 834:	81 e0       	ldi	r24, 0x01	; 1
 836:	0e 94 f1 03 	call	0x7e2	; 0x7e2 <LCD_sendCommand>
 83a:	08 95       	ret

0000083c <LCD_moveCursor>:
 83c:	81 30       	cpi	r24, 0x01	; 1
 83e:	39 f0       	breq	.+14     	; 0x84e <LCD_moveCursor+0x12>
 840:	81 30       	cpi	r24, 0x01	; 1
 842:	50 f0       	brcs	.+20     	; 0x858 <LCD_moveCursor+0x1c>
 844:	82 30       	cpi	r24, 0x02	; 2
 846:	29 f0       	breq	.+10     	; 0x852 <LCD_moveCursor+0x16>
 848:	83 30       	cpi	r24, 0x03	; 3
 84a:	31 f4       	brne	.+12     	; 0x858 <LCD_moveCursor+0x1c>
 84c:	04 c0       	rjmp	.+8      	; 0x856 <LCD_moveCursor+0x1a>
 84e:	60 5c       	subi	r22, 0xC0	; 192
 850:	03 c0       	rjmp	.+6      	; 0x858 <LCD_moveCursor+0x1c>
 852:	60 5f       	subi	r22, 0xF0	; 240
 854:	01 c0       	rjmp	.+2      	; 0x858 <LCD_moveCursor+0x1c>
 856:	60 5b       	subi	r22, 0xB0	; 176
 858:	86 2f       	mov	r24, r22
 85a:	80 68       	ori	r24, 0x80	; 128
 85c:	0e 94 f1 03 	call	0x7e2	; 0x7e2 <LCD_sendCommand>
 860:	08 95       	ret

00000862 <LCD_displayStringRowColumn>:
 862:	0f 93       	push	r16
 864:	1f 93       	push	r17
 866:	8a 01       	movw	r16, r20
 868:	0e 94 1e 04 	call	0x83c	; 0x83c <LCD_moveCursor>
 86c:	c8 01       	movw	r24, r16
 86e:	0e 94 bc 03 	call	0x778	; 0x778 <LCD_displayString>
 872:	1f 91       	pop	r17
 874:	0f 91       	pop	r16
 876:	08 95       	ret

00000878 <LCD_init>:
 878:	81 e0       	ldi	r24, 0x01	; 1
 87a:	62 e0       	ldi	r22, 0x02	; 2
 87c:	41 e0       	ldi	r20, 0x01	; 1
 87e:	0e 94 49 00 	call	0x92	; 0x92 <GPIO_setupPinDirection>
 882:	81 e0       	ldi	r24, 0x01	; 1
 884:	60 e0       	ldi	r22, 0x00	; 0
 886:	41 e0       	ldi	r20, 0x01	; 1
 888:	0e 94 49 00 	call	0x92	; 0x92 <GPIO_setupPinDirection>
 88c:	80 e4       	ldi	r24, 0x40	; 64
 88e:	9c e9       	ldi	r25, 0x9C	; 156
 890:	01 97       	sbiw	r24, 0x01	; 1
 892:	f1 f7       	brne	.-4      	; 0x890 <LCD_init+0x18>
 894:	80 e0       	ldi	r24, 0x00	; 0
 896:	61 e0       	ldi	r22, 0x01	; 1
 898:	0e 94 4f 01 	call	0x29e	; 0x29e <GPIO_setupPortDirection>
 89c:	88 e3       	ldi	r24, 0x38	; 56
 89e:	0e 94 f1 03 	call	0x7e2	; 0x7e2 <LCD_sendCommand>
 8a2:	8c e0       	ldi	r24, 0x0C	; 12
 8a4:	0e 94 f1 03 	call	0x7e2	; 0x7e2 <LCD_sendCommand>
 8a8:	81 e0       	ldi	r24, 0x01	; 1
 8aa:	0e 94 f1 03 	call	0x7e2	; 0x7e2 <LCD_sendCommand>
 8ae:	08 95       	ret

000008b0 <main>:
 8b0:	df 93       	push	r29
 8b2:	cf 93       	push	r28
 8b4:	cd b7       	in	r28, 0x3d	; 61
 8b6:	de b7       	in	r29, 0x3e	; 62
 8b8:	2e 97       	sbiw	r28, 0x0e	; 14
 8ba:	0f b6       	in	r0, 0x3f	; 63
 8bc:	f8 94       	cli
 8be:	de bf       	out	0x3e, r29	; 62
 8c0:	0f be       	out	0x3f, r0	; 63
 8c2:	cd bf       	out	0x3d, r28	; 61
 8c4:	78 94       	sei
 8c6:	de 01       	movw	r26, r28
 8c8:	17 96       	adiw	r26, 0x07	; 7
 8ca:	ea e3       	ldi	r30, 0x3A	; 58
 8cc:	f1 e0       	ldi	r31, 0x01	; 1
 8ce:	88 e0       	ldi	r24, 0x08	; 8
 8d0:	01 90       	ld	r0, Z+
 8d2:	0d 92       	st	X+, r0
 8d4:	81 50       	subi	r24, 0x01	; 1
 8d6:	e1 f7       	brne	.-8      	; 0x8d0 <main+0x20>
 8d8:	ce 01       	movw	r24, r28
 8da:	07 96       	adiw	r24, 0x07	; 7
 8dc:	0e 94 23 02 	call	0x446	; 0x446 <UART_init>
 8e0:	0e 94 3c 04 	call	0x878	; 0x878 <LCD_init>
 8e4:	0e 94 b2 02 	call	0x564	; 0x564 <DCmotor_init>
 8e8:	0e 94 6a 03 	call	0x6d4	; 0x6d4 <Stepper_Init>
 8ec:	de 01       	movw	r26, r28
 8ee:	11 96       	adiw	r26, 0x01	; 1
 8f0:	e4 e3       	ldi	r30, 0x34	; 52
 8f2:	f1 e0       	ldi	r31, 0x01	; 1
 8f4:	86 e0       	ldi	r24, 0x06	; 6
 8f6:	01 90       	ld	r0, Z+
 8f8:	0d 92       	st	X+, r0
 8fa:	81 50       	subi	r24, 0x01	; 1
 8fc:	e1 f7       	brne	.-8      	; 0x8f6 <main+0x46>
 8fe:	ce 01       	movw	r24, r28
 900:	01 96       	adiw	r24, 0x01	; 1
 902:	0e 94 dc 01 	call	0x3b8	; 0x3b8 <Timer1_init>
 906:	80 e6       	ldi	r24, 0x60	; 96
 908:	90 e0       	ldi	r25, 0x00	; 0
 90a:	0e 94 bc 03 	call	0x778	; 0x778 <LCD_displayString>
 90e:	84 ec       	ldi	r24, 0xC4	; 196
 910:	99 e0       	ldi	r25, 0x09	; 9
 912:	28 ec       	ldi	r18, 0xC8	; 200
 914:	30 e0       	ldi	r19, 0x00	; 0
 916:	f9 01       	movw	r30, r18
 918:	31 97       	sbiw	r30, 0x01	; 1
 91a:	f1 f7       	brne	.-4      	; 0x918 <main+0x68>
 91c:	01 97       	sbiw	r24, 0x01	; 1
 91e:	d9 f7       	brne	.-10     	; 0x916 <main+0x66>
 920:	81 e0       	ldi	r24, 0x01	; 1
 922:	60 e0       	ldi	r22, 0x00	; 0
 924:	41 e8       	ldi	r20, 0x81	; 129
 926:	50 e0       	ldi	r21, 0x00	; 0
 928:	0e 94 31 04 	call	0x862	; 0x862 <LCD_displayStringRowColumn>
 92c:	82 ea       	ldi	r24, 0xA2	; 162
 92e:	94 e0       	ldi	r25, 0x04	; 4
 930:	0e 94 07 02 	call	0x40e	; 0x40e <Timer1_setCallBack>
 934:	60 91 55 01 	lds	r22, 0x0155
 938:	86 e5       	ldi	r24, 0x56	; 86
 93a:	91 e0       	ldi	r25, 0x01	; 1
 93c:	70 e0       	ldi	r23, 0x00	; 0
 93e:	0e 94 c9 02 	call	0x592	; 0x592 <Stepper_Start>
 942:	f8 cf       	rjmp	.-16     	; 0x934 <main+0x84>

00000944 <Clock>:
 944:	80 91 54 01 	lds	r24, 0x0154
 948:	89 30       	cpi	r24, 0x09	; 9
 94a:	50 f4       	brcc	.+20     	; 0x960 <Clock+0x1c>
 94c:	8f 5f       	subi	r24, 0xFF	; 255
 94e:	80 93 54 01 	sts	0x0154, r24
 952:	81 e0       	ldi	r24, 0x01	; 1
 954:	64 e1       	ldi	r22, 0x14	; 20
 956:	0e 94 1e 04 	call	0x83c	; 0x83c <LCD_moveCursor>
 95a:	80 91 54 01 	lds	r24, 0x0154
 95e:	10 c1       	rjmp	.+544    	; 0xb80 <Clock+0x23c>
 960:	80 91 53 01 	lds	r24, 0x0153
 964:	85 30       	cpi	r24, 0x05	; 5
 966:	a8 f4       	brcc	.+42     	; 0x992 <Clock+0x4e>
 968:	10 92 54 01 	sts	0x0154, r1
 96c:	8f 5f       	subi	r24, 0xFF	; 255
 96e:	80 93 53 01 	sts	0x0153, r24
 972:	81 e0       	ldi	r24, 0x01	; 1
 974:	64 e1       	ldi	r22, 0x14	; 20
 976:	0e 94 1e 04 	call	0x83c	; 0x83c <LCD_moveCursor>
 97a:	80 91 54 01 	lds	r24, 0x0154
 97e:	90 e0       	ldi	r25, 0x00	; 0
 980:	0e 94 cf 03 	call	0x79e	; 0x79e <LCD_intgerToString>
 984:	81 e0       	ldi	r24, 0x01	; 1
 986:	63 e1       	ldi	r22, 0x13	; 19
 988:	0e 94 1e 04 	call	0x83c	; 0x83c <LCD_moveCursor>
 98c:	80 91 53 01 	lds	r24, 0x0153
 990:	f7 c0       	rjmp	.+494    	; 0xb80 <Clock+0x23c>
 992:	80 91 52 01 	lds	r24, 0x0152
 996:	89 30       	cpi	r24, 0x09	; 9
 998:	00 f5       	brcc	.+64     	; 0x9da <Clock+0x96>
 99a:	10 92 54 01 	sts	0x0154, r1
 99e:	10 92 53 01 	sts	0x0153, r1
 9a2:	8f 5f       	subi	r24, 0xFF	; 255
 9a4:	80 93 52 01 	sts	0x0152, r24
 9a8:	81 e0       	ldi	r24, 0x01	; 1
 9aa:	64 e1       	ldi	r22, 0x14	; 20
 9ac:	0e 94 1e 04 	call	0x83c	; 0x83c <LCD_moveCursor>
 9b0:	80 91 54 01 	lds	r24, 0x0154
 9b4:	90 e0       	ldi	r25, 0x00	; 0
 9b6:	0e 94 cf 03 	call	0x79e	; 0x79e <LCD_intgerToString>
 9ba:	81 e0       	ldi	r24, 0x01	; 1
 9bc:	63 e1       	ldi	r22, 0x13	; 19
 9be:	0e 94 1e 04 	call	0x83c	; 0x83c <LCD_moveCursor>
 9c2:	80 91 53 01 	lds	r24, 0x0153
 9c6:	90 e0       	ldi	r25, 0x00	; 0
 9c8:	0e 94 cf 03 	call	0x79e	; 0x79e <LCD_intgerToString>
 9cc:	81 e0       	ldi	r24, 0x01	; 1
 9ce:	61 e1       	ldi	r22, 0x11	; 17
 9d0:	0e 94 1e 04 	call	0x83c	; 0x83c <LCD_moveCursor>
 9d4:	80 91 52 01 	lds	r24, 0x0152
 9d8:	d3 c0       	rjmp	.+422    	; 0xb80 <Clock+0x23c>
 9da:	80 91 51 01 	lds	r24, 0x0151
 9de:	85 30       	cpi	r24, 0x05	; 5
 9e0:	58 f5       	brcc	.+86     	; 0xa38 <Clock+0xf4>
 9e2:	10 92 54 01 	sts	0x0154, r1
 9e6:	10 92 53 01 	sts	0x0153, r1
 9ea:	10 92 52 01 	sts	0x0152, r1
 9ee:	8f 5f       	subi	r24, 0xFF	; 255
 9f0:	80 93 51 01 	sts	0x0151, r24
 9f4:	81 e0       	ldi	r24, 0x01	; 1
 9f6:	64 e1       	ldi	r22, 0x14	; 20
 9f8:	0e 94 1e 04 	call	0x83c	; 0x83c <LCD_moveCursor>
 9fc:	80 91 54 01 	lds	r24, 0x0154
 a00:	90 e0       	ldi	r25, 0x00	; 0
 a02:	0e 94 cf 03 	call	0x79e	; 0x79e <LCD_intgerToString>
 a06:	81 e0       	ldi	r24, 0x01	; 1
 a08:	63 e1       	ldi	r22, 0x13	; 19
 a0a:	0e 94 1e 04 	call	0x83c	; 0x83c <LCD_moveCursor>
 a0e:	80 91 53 01 	lds	r24, 0x0153
 a12:	90 e0       	ldi	r25, 0x00	; 0
 a14:	0e 94 cf 03 	call	0x79e	; 0x79e <LCD_intgerToString>
 a18:	81 e0       	ldi	r24, 0x01	; 1
 a1a:	61 e1       	ldi	r22, 0x11	; 17
 a1c:	0e 94 1e 04 	call	0x83c	; 0x83c <LCD_moveCursor>
 a20:	80 91 52 01 	lds	r24, 0x0152
 a24:	90 e0       	ldi	r25, 0x00	; 0
 a26:	0e 94 cf 03 	call	0x79e	; 0x79e <LCD_intgerToString>
 a2a:	81 e0       	ldi	r24, 0x01	; 1
 a2c:	60 e1       	ldi	r22, 0x10	; 16
 a2e:	0e 94 1e 04 	call	0x83c	; 0x83c <LCD_moveCursor>
 a32:	80 91 51 01 	lds	r24, 0x0151
 a36:	a4 c0       	rjmp	.+328    	; 0xb80 <Clock+0x23c>
 a38:	90 91 50 01 	lds	r25, 0x0150
 a3c:	99 30       	cpi	r25, 0x09	; 9
 a3e:	e0 f5       	brcc	.+120    	; 0xab8 <Clock+0x174>
 a40:	80 91 4f 01 	lds	r24, 0x014F
 a44:	81 30       	cpi	r24, 0x01	; 1
 a46:	c1 f1       	breq	.+112    	; 0xab8 <Clock+0x174>
 a48:	92 30       	cpi	r25, 0x02	; 2
 a4a:	b0 f5       	brcc	.+108    	; 0xab8 <Clock+0x174>
 a4c:	10 92 54 01 	sts	0x0154, r1
 a50:	10 92 53 01 	sts	0x0153, r1
 a54:	10 92 52 01 	sts	0x0152, r1
 a58:	10 92 51 01 	sts	0x0151, r1
 a5c:	9f 5f       	subi	r25, 0xFF	; 255
 a5e:	90 93 50 01 	sts	0x0150, r25
 a62:	81 e0       	ldi	r24, 0x01	; 1
 a64:	64 e1       	ldi	r22, 0x14	; 20
 a66:	0e 94 1e 04 	call	0x83c	; 0x83c <LCD_moveCursor>
 a6a:	80 91 54 01 	lds	r24, 0x0154
 a6e:	90 e0       	ldi	r25, 0x00	; 0
 a70:	0e 94 cf 03 	call	0x79e	; 0x79e <LCD_intgerToString>
 a74:	81 e0       	ldi	r24, 0x01	; 1
 a76:	63 e1       	ldi	r22, 0x13	; 19
 a78:	0e 94 1e 04 	call	0x83c	; 0x83c <LCD_moveCursor>
 a7c:	80 91 53 01 	lds	r24, 0x0153
 a80:	90 e0       	ldi	r25, 0x00	; 0
 a82:	0e 94 cf 03 	call	0x79e	; 0x79e <LCD_intgerToString>
 a86:	81 e0       	ldi	r24, 0x01	; 1
 a88:	61 e1       	ldi	r22, 0x11	; 17
 a8a:	0e 94 1e 04 	call	0x83c	; 0x83c <LCD_moveCursor>
 a8e:	80 91 52 01 	lds	r24, 0x0152
 a92:	90 e0       	ldi	r25, 0x00	; 0
 a94:	0e 94 cf 03 	call	0x79e	; 0x79e <LCD_intgerToString>
 a98:	81 e0       	ldi	r24, 0x01	; 1
 a9a:	60 e1       	ldi	r22, 0x10	; 16
 a9c:	0e 94 1e 04 	call	0x83c	; 0x83c <LCD_moveCursor>
 aa0:	80 91 51 01 	lds	r24, 0x0151
 aa4:	90 e0       	ldi	r25, 0x00	; 0
 aa6:	0e 94 cf 03 	call	0x79e	; 0x79e <LCD_intgerToString>
 aaa:	81 e0       	ldi	r24, 0x01	; 1
 aac:	6e e0       	ldi	r22, 0x0E	; 14
 aae:	0e 94 1e 04 	call	0x83c	; 0x83c <LCD_moveCursor>
 ab2:	80 91 50 01 	lds	r24, 0x0150
 ab6:	64 c0       	rjmp	.+200    	; 0xb80 <Clock+0x23c>
 ab8:	80 91 4f 01 	lds	r24, 0x014F
 abc:	82 30       	cpi	r24, 0x02	; 2
 abe:	80 f4       	brcc	.+32     	; 0xae0 <Clock+0x19c>
 ac0:	99 23       	and	r25, r25
 ac2:	71 f4       	brne	.+28     	; 0xae0 <Clock+0x19c>
 ac4:	10 92 54 01 	sts	0x0154, r1
 ac8:	10 92 53 01 	sts	0x0153, r1
 acc:	10 92 52 01 	sts	0x0152, r1
 ad0:	10 92 51 01 	sts	0x0151, r1
 ad4:	10 92 50 01 	sts	0x0150, r1
 ad8:	8f 5f       	subi	r24, 0xFF	; 255
 ada:	80 93 4f 01 	sts	0x014F, r24
 ade:	1d c0       	rjmp	.+58     	; 0xb1a <Clock+0x1d6>
 ae0:	10 92 54 01 	sts	0x0154, r1
 ae4:	10 92 53 01 	sts	0x0153, r1
 ae8:	10 92 52 01 	sts	0x0152, r1
 aec:	10 92 51 01 	sts	0x0151, r1
 af0:	10 92 50 01 	sts	0x0150, r1
 af4:	10 92 4f 01 	sts	0x014F, r1
 af8:	80 91 33 01 	lds	r24, 0x0133
 afc:	81 34       	cpi	r24, 0x41	; 65
 afe:	11 f4       	brne	.+4      	; 0xb04 <Clock+0x1c0>
 b00:	80 e5       	ldi	r24, 0x50	; 80
 b02:	01 c0       	rjmp	.+2      	; 0xb06 <Clock+0x1c2>
 b04:	81 e4       	ldi	r24, 0x41	; 65
 b06:	80 93 33 01 	sts	0x0133, r24
 b0a:	81 e0       	ldi	r24, 0x01	; 1
 b0c:	66 e1       	ldi	r22, 0x16	; 22
 b0e:	0e 94 1e 04 	call	0x83c	; 0x83c <LCD_moveCursor>
 b12:	80 91 33 01 	lds	r24, 0x0133
 b16:	0e 94 93 03 	call	0x726	; 0x726 <LCD_displayCharacter>
 b1a:	81 e0       	ldi	r24, 0x01	; 1
 b1c:	64 e1       	ldi	r22, 0x14	; 20
 b1e:	0e 94 1e 04 	call	0x83c	; 0x83c <LCD_moveCursor>
 b22:	80 91 54 01 	lds	r24, 0x0154
 b26:	90 e0       	ldi	r25, 0x00	; 0
 b28:	0e 94 cf 03 	call	0x79e	; 0x79e <LCD_intgerToString>
 b2c:	81 e0       	ldi	r24, 0x01	; 1
 b2e:	63 e1       	ldi	r22, 0x13	; 19
 b30:	0e 94 1e 04 	call	0x83c	; 0x83c <LCD_moveCursor>
 b34:	80 91 53 01 	lds	r24, 0x0153
 b38:	90 e0       	ldi	r25, 0x00	; 0
 b3a:	0e 94 cf 03 	call	0x79e	; 0x79e <LCD_intgerToString>
 b3e:	81 e0       	ldi	r24, 0x01	; 1
 b40:	61 e1       	ldi	r22, 0x11	; 17
 b42:	0e 94 1e 04 	call	0x83c	; 0x83c <LCD_moveCursor>
 b46:	80 91 52 01 	lds	r24, 0x0152
 b4a:	90 e0       	ldi	r25, 0x00	; 0
 b4c:	0e 94 cf 03 	call	0x79e	; 0x79e <LCD_intgerToString>
 b50:	81 e0       	ldi	r24, 0x01	; 1
 b52:	60 e1       	ldi	r22, 0x10	; 16
 b54:	0e 94 1e 04 	call	0x83c	; 0x83c <LCD_moveCursor>
 b58:	80 91 51 01 	lds	r24, 0x0151
 b5c:	90 e0       	ldi	r25, 0x00	; 0
 b5e:	0e 94 cf 03 	call	0x79e	; 0x79e <LCD_intgerToString>
 b62:	81 e0       	ldi	r24, 0x01	; 1
 b64:	6e e0       	ldi	r22, 0x0E	; 14
 b66:	0e 94 1e 04 	call	0x83c	; 0x83c <LCD_moveCursor>
 b6a:	80 91 50 01 	lds	r24, 0x0150
 b6e:	90 e0       	ldi	r25, 0x00	; 0
 b70:	0e 94 cf 03 	call	0x79e	; 0x79e <LCD_intgerToString>
 b74:	81 e0       	ldi	r24, 0x01	; 1
 b76:	6d e0       	ldi	r22, 0x0D	; 13
 b78:	0e 94 1e 04 	call	0x83c	; 0x83c <LCD_moveCursor>
 b7c:	80 91 4f 01 	lds	r24, 0x014F
 b80:	90 e0       	ldi	r25, 0x00	; 0
 b82:	0e 94 cf 03 	call	0x79e	; 0x79e <LCD_intgerToString>
 b86:	08 95       	ret

00000b88 <Validate_Input>:
 b88:	1f 93       	push	r17
 b8a:	cf 93       	push	r28
 b8c:	df 93       	push	r29
 b8e:	ec 01       	movw	r28, r24
 b90:	8f 81       	ldd	r24, Y+7	; 0x07
 b92:	85 34       	cpi	r24, 0x45	; 69
 b94:	d9 f4       	brne	.+54     	; 0xbcc <Validate_Input+0x44>
 b96:	88 81       	ld	r24, Y
 b98:	28 2f       	mov	r18, r24
 b9a:	30 e0       	ldi	r19, 0x00	; 0
 b9c:	22 33       	cpi	r18, 0x32	; 50
 b9e:	31 05       	cpc	r19, r1
 ba0:	ac f4       	brge	.+42     	; 0xbcc <Validate_Input+0x44>
 ba2:	20 33       	cpi	r18, 0x30	; 48
 ba4:	31 05       	cpc	r19, r1
 ba6:	94 f0       	brlt	.+36     	; 0xbcc <Validate_Input+0x44>
 ba8:	4b 81       	ldd	r20, Y+3	; 0x03
 baa:	46 34       	cpi	r20, 0x46	; 70
 bac:	11 f0       	breq	.+4      	; 0xbb2 <Validate_Input+0x2a>
 bae:	42 34       	cpi	r20, 0x42	; 66
 bb0:	69 f4       	brne	.+26     	; 0xbcc <Validate_Input+0x44>
 bb2:	8c 81       	ldd	r24, Y+4	; 0x04
 bb4:	85 33       	cpi	r24, 0x35	; 53
 bb6:	50 f4       	brcc	.+20     	; 0xbcc <Validate_Input+0x44>
 bb8:	84 33       	cpi	r24, 0x34	; 52
 bba:	19 f4       	brne	.+6      	; 0xbc2 <Validate_Input+0x3a>
 bbc:	8d 81       	ldd	r24, Y+5	; 0x05
 bbe:	86 33       	cpi	r24, 0x36	; 54
 bc0:	28 f4       	brcc	.+10     	; 0xbcc <Validate_Input+0x44>
 bc2:	8e 81       	ldd	r24, Y+6	; 0x06
 bc4:	82 35       	cpi	r24, 0x52	; 82
 bc6:	49 f0       	breq	.+18     	; 0xbda <Validate_Input+0x52>
 bc8:	8c 34       	cpi	r24, 0x4C	; 76
 bca:	39 f0       	breq	.+14     	; 0xbda <Validate_Input+0x52>
 bcc:	80 e0       	ldi	r24, 0x00	; 0
 bce:	60 e0       	ldi	r22, 0x00	; 0
 bd0:	4a e9       	ldi	r20, 0x9A	; 154
 bd2:	50 e0       	ldi	r21, 0x00	; 0
 bd4:	0e 94 31 04 	call	0x862	; 0x862 <LCD_displayStringRowColumn>
 bd8:	55 c0       	rjmp	.+170    	; 0xc84 <Validate_Input+0xfc>
 bda:	1a 81       	ldd	r17, Y+2	; 0x02
 bdc:	10 5d       	subi	r17, 0xD0	; 208
 bde:	84 e6       	ldi	r24, 0x64	; 100
 be0:	90 e0       	ldi	r25, 0x00	; 0
 be2:	bc 01       	movw	r22, r24
 be4:	26 9f       	mul	r18, r22
 be6:	c0 01       	movw	r24, r0
 be8:	27 9f       	mul	r18, r23
 bea:	90 0d       	add	r25, r0
 bec:	36 9f       	mul	r19, r22
 bee:	90 0d       	add	r25, r0
 bf0:	11 24       	eor	r1, r1
 bf2:	18 0f       	add	r17, r24
 bf4:	89 81       	ldd	r24, Y+1	; 0x01
 bf6:	2a e0       	ldi	r18, 0x0A	; 10
 bf8:	82 9f       	mul	r24, r18
 bfa:	c0 01       	movw	r24, r0
 bfc:	11 24       	eor	r1, r1
 bfe:	18 0f       	add	r17, r24
 c00:	42 34       	cpi	r20, 0x42	; 66
 c02:	31 f0       	breq	.+12     	; 0xc10 <Validate_Input+0x88>
 c04:	46 34       	cpi	r20, 0x46	; 70
 c06:	11 f4       	brne	.+4      	; 0xc0c <Validate_Input+0x84>
 c08:	82 e0       	ldi	r24, 0x02	; 2
 c0a:	03 c0       	rjmp	.+6      	; 0xc12 <Validate_Input+0x8a>
 c0c:	80 e0       	ldi	r24, 0x00	; 0
 c0e:	01 c0       	rjmp	.+2      	; 0xc12 <Validate_Input+0x8a>
 c10:	81 e0       	ldi	r24, 0x01	; 1
 c12:	61 2f       	mov	r22, r17
 c14:	0e 94 8d 02 	call	0x51a	; 0x51a <DCmotor_rotate>
 c18:	8d 81       	ldd	r24, Y+5	; 0x05
 c1a:	90 e0       	ldi	r25, 0x00	; 0
 c1c:	80 51       	subi	r24, 0x10	; 16
 c1e:	92 40       	sbci	r25, 0x02	; 2
 c20:	2c 81       	ldd	r18, Y+4	; 0x04
 c22:	4a e0       	ldi	r20, 0x0A	; 10
 c24:	24 9f       	mul	r18, r20
 c26:	90 01       	movw	r18, r0
 c28:	11 24       	eor	r1, r1
 c2a:	82 0f       	add	r24, r18
 c2c:	93 1f       	adc	r25, r19
 c2e:	90 93 57 01 	sts	0x0157, r25
 c32:	80 93 56 01 	sts	0x0156, r24
 c36:	8e 81       	ldd	r24, Y+6	; 0x06
 c38:	80 93 55 01 	sts	0x0155, r24
 c3c:	80 e0       	ldi	r24, 0x00	; 0
 c3e:	60 e0       	ldi	r22, 0x00	; 0
 c40:	4a eb       	ldi	r20, 0xBA	; 186
 c42:	50 e0       	ldi	r21, 0x00	; 0
 c44:	0e 94 31 04 	call	0x862	; 0x862 <LCD_displayStringRowColumn>
 c48:	81 2f       	mov	r24, r17
 c4a:	90 e0       	ldi	r25, 0x00	; 0
 c4c:	0e 94 cf 03 	call	0x79e	; 0x79e <LCD_intgerToString>
 c50:	85 ec       	ldi	r24, 0xC5	; 197
 c52:	90 e0       	ldi	r25, 0x00	; 0
 c54:	0e 94 bc 03 	call	0x778	; 0x778 <LCD_displayString>
 c58:	87 ec       	ldi	r24, 0xC7	; 199
 c5a:	90 e0       	ldi	r25, 0x00	; 0
 c5c:	0e 94 bc 03 	call	0x778	; 0x778 <LCD_displayString>
 c60:	80 91 55 01 	lds	r24, 0x0155
 c64:	8c 34       	cpi	r24, 0x4C	; 76
 c66:	21 f4       	brne	.+8      	; 0xc70 <Validate_Input+0xe8>
 c68:	85 ed       	ldi	r24, 0xD5	; 213
 c6a:	90 e0       	ldi	r25, 0x00	; 0
 c6c:	0e 94 bc 03 	call	0x778	; 0x778 <LCD_displayString>
 c70:	80 91 56 01 	lds	r24, 0x0156
 c74:	90 91 57 01 	lds	r25, 0x0157
 c78:	0e 94 cf 03 	call	0x79e	; 0x79e <LCD_intgerToString>
 c7c:	87 ed       	ldi	r24, 0xD7	; 215
 c7e:	90 e0       	ldi	r25, 0x00	; 0
 c80:	0e 94 bc 03 	call	0x778	; 0x778 <LCD_displayString>
 c84:	df 91       	pop	r29
 c86:	cf 91       	pop	r28
 c88:	1f 91       	pop	r17
 c8a:	08 95       	ret

00000c8c <Input_Read>:
 c8c:	cf 93       	push	r28
 c8e:	df 93       	push	r29
 c90:	80 91 46 01 	lds	r24, 0x0146
 c94:	88 23       	and	r24, r24
 c96:	29 f4       	brne	.+10     	; 0xca2 <Input_Read+0x16>
 c98:	60 e0       	ldi	r22, 0x00	; 0
 c9a:	4f ed       	ldi	r20, 0xDF	; 223
 c9c:	50 e0       	ldi	r21, 0x00	; 0
 c9e:	0e 94 31 04 	call	0x862	; 0x862 <LCD_displayStringRowColumn>
 ca2:	80 91 46 01 	lds	r24, 0x0146
 ca6:	c8 2f       	mov	r28, r24
 ca8:	d0 e0       	ldi	r29, 0x00	; 0
 caa:	0e 94 65 02 	call	0x4ca	; 0x4ca <UART_recieveByte>
 cae:	c9 5b       	subi	r28, 0xB9	; 185
 cb0:	de 4f       	sbci	r29, 0xFE	; 254
 cb2:	88 83       	st	Y, r24
 cb4:	90 91 46 01 	lds	r25, 0x0146
 cb8:	e9 2f       	mov	r30, r25
 cba:	f0 e0       	ldi	r31, 0x00	; 0
 cbc:	e9 5b       	subi	r30, 0xB9	; 185
 cbe:	fe 4f       	sbci	r31, 0xFE	; 254
 cc0:	80 81       	ld	r24, Z
 cc2:	85 34       	cpi	r24, 0x45	; 69
 cc4:	59 f4       	brne	.+22     	; 0xcdc <Input_Read+0x50>
 cc6:	97 30       	cpi	r25, 0x07	; 7
 cc8:	49 f0       	breq	.+18     	; 0xcdc <Input_Read+0x50>
 cca:	80 e0       	ldi	r24, 0x00	; 0
 ccc:	60 e0       	ldi	r22, 0x00	; 0
 cce:	49 e0       	ldi	r20, 0x09	; 9
 cd0:	51 e0       	ldi	r21, 0x01	; 1
 cd2:	0e 94 31 04 	call	0x862	; 0x862 <LCD_displayStringRowColumn>
 cd6:	10 92 46 01 	sts	0x0146, r1
 cda:	03 c0       	rjmp	.+6      	; 0xce2 <Input_Read+0x56>
 cdc:	9f 5f       	subi	r25, 0xFF	; 255
 cde:	90 93 46 01 	sts	0x0146, r25
 ce2:	80 91 46 01 	lds	r24, 0x0146
 ce6:	88 30       	cpi	r24, 0x08	; 8
 ce8:	30 f0       	brcs	.+12     	; 0xcf6 <Input_Read+0x6a>
 cea:	10 92 46 01 	sts	0x0146, r1
 cee:	87 e4       	ldi	r24, 0x47	; 71
 cf0:	91 e0       	ldi	r25, 0x01	; 1
 cf2:	0e 94 c4 05 	call	0xb88	; 0xb88 <Validate_Input>
 cf6:	df 91       	pop	r29
 cf8:	cf 91       	pop	r28
 cfa:	08 95       	ret

00000cfc <__vector_13>:
 cfc:	1f 92       	push	r1
 cfe:	0f 92       	push	r0
 d00:	0f b6       	in	r0, 0x3f	; 63
 d02:	0f 92       	push	r0
 d04:	11 24       	eor	r1, r1
 d06:	2f 93       	push	r18
 d08:	3f 93       	push	r19
 d0a:	4f 93       	push	r20
 d0c:	5f 93       	push	r21
 d0e:	6f 93       	push	r22
 d10:	7f 93       	push	r23
 d12:	8f 93       	push	r24
 d14:	9f 93       	push	r25
 d16:	af 93       	push	r26
 d18:	bf 93       	push	r27
 d1a:	ef 93       	push	r30
 d1c:	ff 93       	push	r31
 d1e:	0e 94 46 06 	call	0xc8c	; 0xc8c <Input_Read>
 d22:	ff 91       	pop	r31
 d24:	ef 91       	pop	r30
 d26:	bf 91       	pop	r27
 d28:	af 91       	pop	r26
 d2a:	9f 91       	pop	r25
 d2c:	8f 91       	pop	r24
 d2e:	7f 91       	pop	r23
 d30:	6f 91       	pop	r22
 d32:	5f 91       	pop	r21
 d34:	4f 91       	pop	r20
 d36:	3f 91       	pop	r19
 d38:	2f 91       	pop	r18
 d3a:	0f 90       	pop	r0
 d3c:	0f be       	out	0x3f, r0	; 63
 d3e:	0f 90       	pop	r0
 d40:	1f 90       	pop	r1
 d42:	18 95       	reti

00000d44 <__mulsi3>:
 d44:	62 9f       	mul	r22, r18
 d46:	d0 01       	movw	r26, r0
 d48:	73 9f       	mul	r23, r19
 d4a:	f0 01       	movw	r30, r0
 d4c:	82 9f       	mul	r24, r18
 d4e:	e0 0d       	add	r30, r0
 d50:	f1 1d       	adc	r31, r1
 d52:	64 9f       	mul	r22, r20
 d54:	e0 0d       	add	r30, r0
 d56:	f1 1d       	adc	r31, r1
 d58:	92 9f       	mul	r25, r18
 d5a:	f0 0d       	add	r31, r0
 d5c:	83 9f       	mul	r24, r19
 d5e:	f0 0d       	add	r31, r0
 d60:	74 9f       	mul	r23, r20
 d62:	f0 0d       	add	r31, r0
 d64:	65 9f       	mul	r22, r21
 d66:	f0 0d       	add	r31, r0
 d68:	99 27       	eor	r25, r25
 d6a:	72 9f       	mul	r23, r18
 d6c:	b0 0d       	add	r27, r0
 d6e:	e1 1d       	adc	r30, r1
 d70:	f9 1f       	adc	r31, r25
 d72:	63 9f       	mul	r22, r19
 d74:	b0 0d       	add	r27, r0
 d76:	e1 1d       	adc	r30, r1
 d78:	f9 1f       	adc	r31, r25
 d7a:	bd 01       	movw	r22, r26
 d7c:	cf 01       	movw	r24, r30
 d7e:	11 24       	eor	r1, r1
 d80:	08 95       	ret

00000d82 <__divmodhi4>:
 d82:	97 fb       	bst	r25, 7
 d84:	09 2e       	mov	r0, r25
 d86:	07 26       	eor	r0, r23
 d88:	0a d0       	rcall	.+20     	; 0xd9e <__divmodhi4_neg1>
 d8a:	77 fd       	sbrc	r23, 7
 d8c:	04 d0       	rcall	.+8      	; 0xd96 <__divmodhi4_neg2>
 d8e:	2e d0       	rcall	.+92     	; 0xdec <__udivmodhi4>
 d90:	06 d0       	rcall	.+12     	; 0xd9e <__divmodhi4_neg1>
 d92:	00 20       	and	r0, r0
 d94:	1a f4       	brpl	.+6      	; 0xd9c <__divmodhi4_exit>

00000d96 <__divmodhi4_neg2>:
 d96:	70 95       	com	r23
 d98:	61 95       	neg	r22
 d9a:	7f 4f       	sbci	r23, 0xFF	; 255

00000d9c <__divmodhi4_exit>:
 d9c:	08 95       	ret

00000d9e <__divmodhi4_neg1>:
 d9e:	f6 f7       	brtc	.-4      	; 0xd9c <__divmodhi4_exit>
 da0:	90 95       	com	r25
 da2:	81 95       	neg	r24
 da4:	9f 4f       	sbci	r25, 0xFF	; 255
 da6:	08 95       	ret

00000da8 <__udivmodsi4>:
 da8:	a1 e2       	ldi	r26, 0x21	; 33
 daa:	1a 2e       	mov	r1, r26
 dac:	aa 1b       	sub	r26, r26
 dae:	bb 1b       	sub	r27, r27
 db0:	fd 01       	movw	r30, r26
 db2:	0d c0       	rjmp	.+26     	; 0xdce <__udivmodsi4_ep>

00000db4 <__udivmodsi4_loop>:
 db4:	aa 1f       	adc	r26, r26
 db6:	bb 1f       	adc	r27, r27
 db8:	ee 1f       	adc	r30, r30
 dba:	ff 1f       	adc	r31, r31
 dbc:	a2 17       	cp	r26, r18
 dbe:	b3 07       	cpc	r27, r19
 dc0:	e4 07       	cpc	r30, r20
 dc2:	f5 07       	cpc	r31, r21
 dc4:	20 f0       	brcs	.+8      	; 0xdce <__udivmodsi4_ep>
 dc6:	a2 1b       	sub	r26, r18
 dc8:	b3 0b       	sbc	r27, r19
 dca:	e4 0b       	sbc	r30, r20
 dcc:	f5 0b       	sbc	r31, r21

00000dce <__udivmodsi4_ep>:
 dce:	66 1f       	adc	r22, r22
 dd0:	77 1f       	adc	r23, r23
 dd2:	88 1f       	adc	r24, r24
 dd4:	99 1f       	adc	r25, r25
 dd6:	1a 94       	dec	r1
 dd8:	69 f7       	brne	.-38     	; 0xdb4 <__udivmodsi4_loop>
 dda:	60 95       	com	r22
 ddc:	70 95       	com	r23
 dde:	80 95       	com	r24
 de0:	90 95       	com	r25
 de2:	9b 01       	movw	r18, r22
 de4:	ac 01       	movw	r20, r24
 de6:	bd 01       	movw	r22, r26
 de8:	cf 01       	movw	r24, r30
 dea:	08 95       	ret

00000dec <__udivmodhi4>:
 dec:	aa 1b       	sub	r26, r26
 dee:	bb 1b       	sub	r27, r27
 df0:	51 e1       	ldi	r21, 0x11	; 17
 df2:	07 c0       	rjmp	.+14     	; 0xe02 <__udivmodhi4_ep>

00000df4 <__udivmodhi4_loop>:
 df4:	aa 1f       	adc	r26, r26
 df6:	bb 1f       	adc	r27, r27
 df8:	a6 17       	cp	r26, r22
 dfa:	b7 07       	cpc	r27, r23
 dfc:	10 f0       	brcs	.+4      	; 0xe02 <__udivmodhi4_ep>
 dfe:	a6 1b       	sub	r26, r22
 e00:	b7 0b       	sbc	r27, r23

00000e02 <__udivmodhi4_ep>:
 e02:	88 1f       	adc	r24, r24
 e04:	99 1f       	adc	r25, r25
 e06:	5a 95       	dec	r21
 e08:	a9 f7       	brne	.-22     	; 0xdf4 <__udivmodhi4_loop>
 e0a:	80 95       	com	r24
 e0c:	90 95       	com	r25
 e0e:	bc 01       	movw	r22, r24
 e10:	cd 01       	movw	r24, r26
 e12:	08 95       	ret

00000e14 <itoa>:
 e14:	fb 01       	movw	r30, r22
 e16:	9f 01       	movw	r18, r30
 e18:	e8 94       	clt
 e1a:	42 30       	cpi	r20, 0x02	; 2
 e1c:	c4 f0       	brlt	.+48     	; 0xe4e <itoa+0x3a>
 e1e:	45 32       	cpi	r20, 0x25	; 37
 e20:	b4 f4       	brge	.+44     	; 0xe4e <itoa+0x3a>
 e22:	4a 30       	cpi	r20, 0x0A	; 10
 e24:	29 f4       	brne	.+10     	; 0xe30 <itoa+0x1c>
 e26:	97 fb       	bst	r25, 7
 e28:	1e f4       	brtc	.+6      	; 0xe30 <itoa+0x1c>
 e2a:	90 95       	com	r25
 e2c:	81 95       	neg	r24
 e2e:	9f 4f       	sbci	r25, 0xFF	; 255
 e30:	64 2f       	mov	r22, r20
 e32:	77 27       	eor	r23, r23
 e34:	0e 94 f6 06 	call	0xdec	; 0xdec <__udivmodhi4>
 e38:	80 5d       	subi	r24, 0xD0	; 208
 e3a:	8a 33       	cpi	r24, 0x3A	; 58
 e3c:	0c f0       	brlt	.+2      	; 0xe40 <itoa+0x2c>
 e3e:	89 5d       	subi	r24, 0xD9	; 217
 e40:	81 93       	st	Z+, r24
 e42:	cb 01       	movw	r24, r22
 e44:	00 97       	sbiw	r24, 0x00	; 0
 e46:	a1 f7       	brne	.-24     	; 0xe30 <itoa+0x1c>
 e48:	16 f4       	brtc	.+4      	; 0xe4e <itoa+0x3a>
 e4a:	5d e2       	ldi	r21, 0x2D	; 45
 e4c:	51 93       	st	Z+, r21
 e4e:	10 82       	st	Z, r1
 e50:	c9 01       	movw	r24, r18
 e52:	0c 94 2b 07 	jmp	0xe56	; 0xe56 <strrev>

00000e56 <strrev>:
 e56:	dc 01       	movw	r26, r24
 e58:	fc 01       	movw	r30, r24
 e5a:	67 2f       	mov	r22, r23
 e5c:	71 91       	ld	r23, Z+
 e5e:	77 23       	and	r23, r23
 e60:	e1 f7       	brne	.-8      	; 0xe5a <strrev+0x4>
 e62:	32 97       	sbiw	r30, 0x02	; 2
 e64:	04 c0       	rjmp	.+8      	; 0xe6e <strrev+0x18>
 e66:	7c 91       	ld	r23, X
 e68:	6d 93       	st	X+, r22
 e6a:	70 83       	st	Z, r23
 e6c:	62 91       	ld	r22, -Z
 e6e:	ae 17       	cp	r26, r30
 e70:	bf 07       	cpc	r27, r31
 e72:	c8 f3       	brcs	.-14     	; 0xe66 <strrev+0x10>
 e74:	08 95       	ret

00000e76 <_exit>:
 e76:	f8 94       	cli

00000e78 <__stop_program>:
 e78:	ff cf       	rjmp	.-2      	; 0xe78 <__stop_program>
